00000000  7F45              jg 0x47
00000002  4C                dec sp
00000003  46                inc si
00000004  0201              add al,[bx+di]
00000006  0100              add [bx+si],ax
00000008  0000              add [bx+si],al
0000000A  0000              add [bx+si],al
0000000C  0000              add [bx+si],al
0000000E  0000              add [bx+si],al
00000010  0300              add ax,[bx+si]
00000012  3E0001            add [ds:bx+di],al
00000015  0000              add [bx+si],al
00000017  0020              add [bx+si],ah
00000019  1100              adc [bx+si],ax
0000001B  0000              add [bx+si],al
0000001D  0000              add [bx+si],al
0000001F  004000            add [bx+si+0x0],al
00000022  0000              add [bx+si],al
00000024  0000              add [bx+si],al
00000026  0000              add [bx+si],al
00000028  E051              loopne 0x7b
0000002A  0000              add [bx+si],al
0000002C  0000              add [bx+si],al
0000002E  0000              add [bx+si],al
00000030  0000              add [bx+si],al
00000032  0000              add [bx+si],al
00000034  40                inc ax
00000035  0038              add [bx+si],bh
00000037  000D              add [di],cl
00000039  004000            add [bx+si+0x0],al
0000003C  250024            and ax,0x2400
0000003F  00060000          add [0x0],al
00000043  0004              add [si],al
00000045  0000              add [bx+si],al
00000047  004000            add [bx+si+0x0],al
0000004A  0000              add [bx+si],al
0000004C  0000              add [bx+si],al
0000004E  0000              add [bx+si],al
00000050  40                inc ax
00000051  0000              add [bx+si],al
00000053  0000              add [bx+si],al
00000055  0000              add [bx+si],al
00000057  004000            add [bx+si+0x0],al
0000005A  0000              add [bx+si],al
0000005C  0000              add [bx+si],al
0000005E  0000              add [bx+si],al
00000060  D802              fadd dword [bp+si]
00000062  0000              add [bx+si],al
00000064  0000              add [bx+si],al
00000066  0000              add [bx+si],al
00000068  D802              fadd dword [bp+si]
0000006A  0000              add [bx+si],al
0000006C  0000              add [bx+si],al
0000006E  0000              add [bx+si],al
00000070  0800              or [bx+si],al
00000072  0000              add [bx+si],al
00000074  0000              add [bx+si],al
00000076  0000              add [bx+si],al
00000078  0300              add ax,[bx+si]
0000007A  0000              add [bx+si],al
0000007C  0400              add al,0x0
0000007E  0000              add [bx+si],al
00000080  1803              sbb [bp+di],al
00000082  0000              add [bx+si],al
00000084  0000              add [bx+si],al
00000086  0000              add [bx+si],al
00000088  1803              sbb [bp+di],al
0000008A  0000              add [bx+si],al
0000008C  0000              add [bx+si],al
0000008E  0000              add [bx+si],al
00000090  1803              sbb [bp+di],al
00000092  0000              add [bx+si],al
00000094  0000              add [bx+si],al
00000096  0000              add [bx+si],al
00000098  1C00              sbb al,0x0
0000009A  0000              add [bx+si],al
0000009C  0000              add [bx+si],al
0000009E  0000              add [bx+si],al
000000A0  1C00              sbb al,0x0
000000A2  0000              add [bx+si],al
000000A4  0000              add [bx+si],al
000000A6  0000              add [bx+si],al
000000A8  0100              add [bx+si],ax
000000AA  0000              add [bx+si],al
000000AC  0000              add [bx+si],al
000000AE  0000              add [bx+si],al
000000B0  0100              add [bx+si],ax
000000B2  0000              add [bx+si],al
000000B4  0400              add al,0x0
000000B6  0000              add [bx+si],al
000000B8  0000              add [bx+si],al
000000BA  0000              add [bx+si],al
000000BC  0000              add [bx+si],al
000000BE  0000              add [bx+si],al
000000C0  0000              add [bx+si],al
000000C2  0000              add [bx+si],al
000000C4  0000              add [bx+si],al
000000C6  0000              add [bx+si],al
000000C8  0000              add [bx+si],al
000000CA  0000              add [bx+si],al
000000CC  0000              add [bx+si],al
000000CE  0000              add [bx+si],al
000000D0  800900            or byte [bx+di],0x0
000000D3  0000              add [bx+si],al
000000D5  0000              add [bx+si],al
000000D7  00800900          add [bx+si+0x9],al
000000DB  0000              add [bx+si],al
000000DD  0000              add [bx+si],al
000000DF  0000              add [bx+si],al
000000E1  1000              adc [bx+si],al
000000E3  0000              add [bx+si],al
000000E5  0000              add [bx+si],al
000000E7  0001              add [bx+di],al
000000E9  0000              add [bx+si],al
000000EB  0005              add [di],al
000000ED  0000              add [bx+si],al
000000EF  0000              add [bx+si],al
000000F1  1000              adc [bx+si],al
000000F3  0000              add [bx+si],al
000000F5  0000              add [bx+si],al
000000F7  0000              add [bx+si],al
000000F9  1000              adc [bx+si],al
000000FB  0000              add [bx+si],al
000000FD  0000              add [bx+si],al
000000FF  0000              add [bx+si],al
00000101  1000              adc [bx+si],al
00000103  0000              add [bx+si],al
00000105  0000              add [bx+si],al
00000107  007D0F            add [di+0xf],bh
0000010A  0000              add [bx+si],al
0000010C  0000              add [bx+si],al
0000010E  0000              add [bx+si],al
00000110  7D0F              jnl 0x121
00000112  0000              add [bx+si],al
00000114  0000              add [bx+si],al
00000116  0000              add [bx+si],al
00000118  0010              add [bx+si],dl
0000011A  0000              add [bx+si],al
0000011C  0000              add [bx+si],al
0000011E  0000              add [bx+si],al
00000120  0100              add [bx+si],ax
00000122  0000              add [bx+si],al
00000124  0400              add al,0x0
00000126  0000              add [bx+si],al
00000128  0020              add [bx+si],ah
0000012A  0000              add [bx+si],al
0000012C  0000              add [bx+si],al
0000012E  0000              add [bx+si],al
00000130  0020              add [bx+si],ah
00000132  0000              add [bx+si],al
00000134  0000              add [bx+si],al
00000136  0000              add [bx+si],al
00000138  0020              add [bx+si],ah
0000013A  0000              add [bx+si],al
0000013C  0000              add [bx+si],al
0000013E  0000              add [bx+si],al
00000140  CC                int3
00000141  050000            add ax,0x0
00000144  0000              add [bx+si],al
00000146  0000              add [bx+si],al
00000148  CC                int3
00000149  050000            add ax,0x0
0000014C  0000              add [bx+si],al
0000014E  0000              add [bx+si],al
00000150  0010              add [bx+si],dl
00000152  0000              add [bx+si],al
00000154  0000              add [bx+si],al
00000156  0000              add [bx+si],al
00000158  0100              add [bx+si],ax
0000015A  0000              add [bx+si],al
0000015C  06                push es
0000015D  0000              add [bx+si],al
0000015F  00D0              add al,dl
00000161  2D0000            sub ax,0x0
00000164  0000              add [bx+si],al
00000166  0000              add [bx+si],al
00000168  D03D              sar byte [di],1
0000016A  0000              add [bx+si],al
0000016C  0000              add [bx+si],al
0000016E  0000              add [bx+si],al
00000170  D03D              sar byte [di],1
00000172  0000              add [bx+si],al
00000174  0000              add [bx+si],al
00000176  0000              add [bx+si],al
00000178  B80200            mov ax,0x2
0000017B  0000              add [bx+si],al
0000017D  0000              add [bx+si],al
0000017F  00C0              add al,al
00000181  0200              add al,[bx+si]
00000183  0000              add [bx+si],al
00000185  0000              add [bx+si],al
00000187  0000              add [bx+si],al
00000189  1000              adc [bx+si],al
0000018B  0000              add [bx+si],al
0000018D  0000              add [bx+si],al
0000018F  0002              add [bp+si],al
00000191  0000              add [bx+si],al
00000193  00060000          add [0x0],al
00000197  00E0              add al,ah
00000199  2D0000            sub ax,0x0
0000019C  0000              add [bx+si],al
0000019E  0000              add [bx+si],al
000001A0  E03D              loopne 0x1df
000001A2  0000              add [bx+si],al
000001A4  0000              add [bx+si],al
000001A6  0000              add [bx+si],al
000001A8  E03D              loopne 0x1e7
000001AA  0000              add [bx+si],al
000001AC  0000              add [bx+si],al
000001AE  0000              add [bx+si],al
000001B0  E001              loopne 0x1b3
000001B2  0000              add [bx+si],al
000001B4  0000              add [bx+si],al
000001B6  0000              add [bx+si],al
000001B8  E001              loopne 0x1bb
000001BA  0000              add [bx+si],al
000001BC  0000              add [bx+si],al
000001BE  0000              add [bx+si],al
000001C0  0800              or [bx+si],al
000001C2  0000              add [bx+si],al
000001C4  0000              add [bx+si],al
000001C6  0000              add [bx+si],al
000001C8  0400              add al,0x0
000001CA  0000              add [bx+si],al
000001CC  0400              add al,0x0
000001CE  0000              add [bx+si],al
000001D0  3803              cmp [bp+di],al
000001D2  0000              add [bx+si],al
000001D4  0000              add [bx+si],al
000001D6  0000              add [bx+si],al
000001D8  3803              cmp [bp+di],al
000001DA  0000              add [bx+si],al
000001DC  0000              add [bx+si],al
000001DE  0000              add [bx+si],al
000001E0  3803              cmp [bp+di],al
000001E2  0000              add [bx+si],al
000001E4  0000              add [bx+si],al
000001E6  0000              add [bx+si],al
000001E8  40                inc ax
000001E9  0000              add [bx+si],al
000001EB  0000              add [bx+si],al
000001ED  0000              add [bx+si],al
000001EF  004000            add [bx+si+0x0],al
000001F2  0000              add [bx+si],al
000001F4  0000              add [bx+si],al
000001F6  0000              add [bx+si],al
000001F8  0800              or [bx+si],al
000001FA  0000              add [bx+si],al
000001FC  0000              add [bx+si],al
000001FE  0000              add [bx+si],al
00000200  0400              add al,0x0
00000202  0000              add [bx+si],al
00000204  0400              add al,0x0
00000206  0000              add [bx+si],al
00000208  7803              js 0x20d
0000020A  0000              add [bx+si],al
0000020C  0000              add [bx+si],al
0000020E  0000              add [bx+si],al
00000210  7803              js 0x215
00000212  0000              add [bx+si],al
00000214  0000              add [bx+si],al
00000216  0000              add [bx+si],al
00000218  7803              js 0x21d
0000021A  0000              add [bx+si],al
0000021C  0000              add [bx+si],al
0000021E  0000              add [bx+si],al
00000220  44                inc sp
00000221  0000              add [bx+si],al
00000223  0000              add [bx+si],al
00000225  0000              add [bx+si],al
00000227  004400            add [si+0x0],al
0000022A  0000              add [bx+si],al
0000022C  0000              add [bx+si],al
0000022E  0000              add [bx+si],al
00000230  0400              add al,0x0
00000232  0000              add [bx+si],al
00000234  0000              add [bx+si],al
00000236  0000              add [bx+si],al
00000238  53                push bx
00000239  E574              in ax,0x74
0000023B  640400            fs add al,0x0
0000023E  0000              add [bx+si],al
00000240  3803              cmp [bp+di],al
00000242  0000              add [bx+si],al
00000244  0000              add [bx+si],al
00000246  0000              add [bx+si],al
00000248  3803              cmp [bp+di],al
0000024A  0000              add [bx+si],al
0000024C  0000              add [bx+si],al
0000024E  0000              add [bx+si],al
00000250  3803              cmp [bp+di],al
00000252  0000              add [bx+si],al
00000254  0000              add [bx+si],al
00000256  0000              add [bx+si],al
00000258  40                inc ax
00000259  0000              add [bx+si],al
0000025B  0000              add [bx+si],al
0000025D  0000              add [bx+si],al
0000025F  004000            add [bx+si+0x0],al
00000262  0000              add [bx+si],al
00000264  0000              add [bx+si],al
00000266  0000              add [bx+si],al
00000268  0800              or [bx+si],al
0000026A  0000              add [bx+si],al
0000026C  0000              add [bx+si],al
0000026E  0000              add [bx+si],al
00000270  50                push ax
00000271  E574              in ax,0x74
00000273  640400            fs add al,0x0
00000276  0000              add [bx+si],al
00000278  AC                lodsb
00000279  2200              and al,[bx+si]
0000027B  0000              add [bx+si],al
0000027D  0000              add [bx+si],al
0000027F  00AC2200          add [si+0x22],ch
00000283  0000              add [bx+si],al
00000285  0000              add [bx+si],al
00000287  00AC2200          add [si+0x22],ch
0000028B  0000              add [bx+si],al
0000028D  0000              add [bx+si],al
0000028F  00A40000          add [si+0x0],ah
00000293  0000              add [bx+si],al
00000295  0000              add [bx+si],al
00000297  00A40000          add [si+0x0],ah
0000029B  0000              add [bx+si],al
0000029D  0000              add [bx+si],al
0000029F  0004              add [si],al
000002A1  0000              add [bx+si],al
000002A3  0000              add [bx+si],al
000002A5  0000              add [bx+si],al
000002A7  0051E5            add [bx+di-0x1b],dl
000002AA  7464              jz 0x310
000002AC  06                push es
000002AD  0000              add [bx+si],al
000002AF  0000              add [bx+si],al
000002B1  0000              add [bx+si],al
000002B3  0000              add [bx+si],al
000002B5  0000              add [bx+si],al
000002B7  0000              add [bx+si],al
000002B9  0000              add [bx+si],al
000002BB  0000              add [bx+si],al
000002BD  0000              add [bx+si],al
000002BF  0000              add [bx+si],al
000002C1  0000              add [bx+si],al
000002C3  0000              add [bx+si],al
000002C5  0000              add [bx+si],al
000002C7  0000              add [bx+si],al
000002C9  0000              add [bx+si],al
000002CB  0000              add [bx+si],al
000002CD  0000              add [bx+si],al
000002CF  0000              add [bx+si],al
000002D1  0000              add [bx+si],al
000002D3  0000              add [bx+si],al
000002D5  0000              add [bx+si],al
000002D7  0010              add [bx+si],dl
000002D9  0000              add [bx+si],al
000002DB  0000              add [bx+si],al
000002DD  0000              add [bx+si],al
000002DF  0052E5            add [bp+si-0x1b],dl
000002E2  7464              jz 0x348
000002E4  0400              add al,0x0
000002E6  0000              add [bx+si],al
000002E8  D02D              shr byte [di],1
000002EA  0000              add [bx+si],al
000002EC  0000              add [bx+si],al
000002EE  0000              add [bx+si],al
000002F0  D03D              sar byte [di],1
000002F2  0000              add [bx+si],al
000002F4  0000              add [bx+si],al
000002F6  0000              add [bx+si],al
000002F8  D03D              sar byte [di],1
000002FA  0000              add [bx+si],al
000002FC  0000              add [bx+si],al
000002FE  0000              add [bx+si],al
00000300  3002              xor [bp+si],al
00000302  0000              add [bx+si],al
00000304  0000              add [bx+si],al
00000306  0000              add [bx+si],al
00000308  3002              xor [bp+si],al
0000030A  0000              add [bx+si],al
0000030C  0000              add [bx+si],al
0000030E  0000              add [bx+si],al
00000310  0100              add [bx+si],ax
00000312  0000              add [bx+si],al
00000314  0000              add [bx+si],al
00000316  0000              add [bx+si],al
00000318  2F                das
00000319  6C                insb
0000031A  696236342F        imul sp,[bp+si+0x36],word 0x2f34
0000031F  6C                insb
00000320  642D6C69          fs sub ax,0x696c
00000324  6E                outsb
00000325  7578              jnz 0x39f
00000327  2D7838            sub ax,0x3878
0000032A  362D3634          ss sub ax,0x3436
0000032E  2E736F            cs jnc 0x3a0
00000331  2E3200            xor al,[cs:bx+si]
00000334  0000              add [bx+si],al
00000336  0000              add [bx+si],al
00000338  0400              add al,0x0
0000033A  0000              add [bx+si],al
0000033C  3000              xor [bx+si],al
0000033E  0000              add [bx+si],al
00000340  050000            add ax,0x0
00000343  00474E            add [bx+0x4e],al
00000346  55                push bp
00000347  0002              add [bp+si],al
00000349  8000C0            add byte [bx+si],0xc0
0000034C  0400              add al,0x0
0000034E  0000              add [bx+si],al
00000350  0100              add [bx+si],ax
00000352  0000              add [bx+si],al
00000354  0000              add [bx+si],al
00000356  0000              add [bx+si],al
00000358  0100              add [bx+si],ax
0000035A  01C0              add ax,ax
0000035C  0400              add al,0x0
0000035E  0000              add [bx+si],al
00000360  0100              add [bx+si],ax
00000362  0000              add [bx+si],al
00000364  0000              add [bx+si],al
00000366  0000              add [bx+si],al
00000368  0200              add al,[bx+si]
0000036A  01C0              add ax,ax
0000036C  0400              add al,0x0
0000036E  0000              add [bx+si],al
00000370  0000              add [bx+si],al
00000372  0000              add [bx+si],al
00000374  0000              add [bx+si],al
00000376  0000              add [bx+si],al
00000378  0400              add al,0x0
0000037A  0000              add [bx+si],al
0000037C  1400              adc al,0x0
0000037E  0000              add [bx+si],al
00000380  0300              add ax,[bx+si]
00000382  0000              add [bx+si],al
00000384  47                inc di
00000385  4E                dec si
00000386  55                push bp
00000387  00C8              add al,cl
00000389  092E0409          or [0x904],bp
0000038D  E3F2              jcxz 0x381
0000038F  94                xchg ax,sp
00000390  188E5547          sbb [bp+0x4755],cl
00000394  EF                out dx,ax
00000395  54                push sp
00000396  0147B3            add [bx-0x4d],ax
00000399  53                push bx
0000039A  7A6A              jpe 0x406
0000039C  0400              add al,0x0
0000039E  0000              add [bx+si],al
000003A0  1000              adc [bx+si],al
000003A2  0000              add [bx+si],al
000003A4  0100              add [bx+si],ax
000003A6  0000              add [bx+si],al
000003A8  47                inc di
000003A9  4E                dec si
000003AA  55                push bp
000003AB  0000              add [bx+si],al
000003AD  0000              add [bx+si],al
000003AF  0004              add [si],al
000003B1  0000              add [bx+si],al
000003B3  0004              add [si],al
000003B5  0000              add [bx+si],al
000003B7  0000              add [bx+si],al
000003B9  0000              add [bx+si],al
000003BB  0000              add [bx+si],al
000003BD  0000              add [bx+si],al
000003BF  0001              add [bx+di],al
000003C1  0000              add [bx+si],al
000003C3  0001              add [bx+di],al
000003C5  0000              add [bx+si],al
000003C7  0001              add [bx+di],al
000003C9  0000              add [bx+si],al
000003CB  0000              add [bx+si],al
000003CD  0000              add [bx+si],al
000003CF  0000              add [bx+si],al
000003D1  0000              add [bx+si],al
000003D3  0000              add [bx+si],al
000003D5  0000              add [bx+si],al
000003D7  0000              add [bx+si],al
000003D9  0000              add [bx+si],al
000003DB  0000              add [bx+si],al
000003DD  0000              add [bx+si],al
000003DF  0000              add [bx+si],al
000003E1  0000              add [bx+si],al
000003E3  0000              add [bx+si],al
000003E5  0000              add [bx+si],al
000003E7  0000              add [bx+si],al
000003E9  0000              add [bx+si],al
000003EB  0000              add [bx+si],al
000003ED  0000              add [bx+si],al
000003EF  0000              add [bx+si],al
000003F1  0000              add [bx+si],al
000003F3  0000              add [bx+si],al
000003F5  0000              add [bx+si],al
000003F7  001C              add [si],bl
000003F9  0000              add [bx+si],al
000003FB  0012              add [bp+si],dl
000003FD  0000              add [bx+si],al
000003FF  0000              add [bx+si],al
00000401  0000              add [bx+si],al
00000403  0000              add [bx+si],al
00000405  0000              add [bx+si],al
00000407  0000              add [bx+si],al
00000409  0000              add [bx+si],al
0000040B  0000              add [bx+si],al
0000040D  0000              add [bx+si],al
0000040F  003B              add [bp+di],bh
00000411  0000              add [bx+si],al
00000413  0012              add [bp+si],dl
00000415  0000              add [bx+si],al
00000417  0000              add [bx+si],al
00000419  0000              add [bx+si],al
0000041B  0000              add [bx+si],al
0000041D  0000              add [bx+si],al
0000041F  0000              add [bx+si],al
00000421  0000              add [bx+si],al
00000423  0000              add [bx+si],al
00000425  0000              add [bx+si],al
00000427  00BC0000          add [si+0x0],bh
0000042B  0020              add [bx+si],ah
0000042D  0000              add [bx+si],al
0000042F  0000              add [bx+si],al
00000431  0000              add [bx+si],al
00000433  0000              add [bx+si],al
00000435  0000              add [bx+si],al
00000437  0000              add [bx+si],al
00000439  0000              add [bx+si],al
0000043B  0000              add [bx+si],al
0000043D  0000              add [bx+si],al
0000043F  0001              add [bx+di],al
00000441  0000              add [bx+si],al
00000443  0012              add [bp+si],dl
00000445  0000              add [bx+si],al
00000447  0000              add [bx+si],al
00000449  0000              add [bx+si],al
0000044B  0000              add [bx+si],al
0000044D  0000              add [bx+si],al
0000044F  0000              add [bx+si],al
00000451  0000              add [bx+si],al
00000453  0000              add [bx+si],al
00000455  0000              add [bx+si],al
00000457  006A00            add [bp+si+0x0],ch
0000045A  0000              add [bx+si],al
0000045C  1200              adc al,[bx+si]
0000045E  0000              add [bx+si],al
00000460  0000              add [bx+si],al
00000462  0000              add [bx+si],al
00000464  0000              add [bx+si],al
00000466  0000              add [bx+si],al
00000468  0000              add [bx+si],al
0000046A  0000              add [bx+si],al
0000046C  0000              add [bx+si],al
0000046E  0000              add [bx+si],al
00000470  06                push es
00000471  0000              add [bx+si],al
00000473  0012              add [bp+si],dl
00000475  0000              add [bx+si],al
00000477  0000              add [bx+si],al
00000479  0000              add [bx+si],al
0000047B  0000              add [bx+si],al
0000047D  0000              add [bx+si],al
0000047F  0000              add [bx+si],al
00000481  0000              add [bx+si],al
00000483  0000              add [bx+si],al
00000485  0000              add [bx+si],al
00000487  004E00            add [bp+0x0],cl
0000048A  0000              add [bx+si],al
0000048C  1200              adc al,[bx+si]
0000048E  0000              add [bx+si],al
00000490  0000              add [bx+si],al
00000492  0000              add [bx+si],al
00000494  0000              add [bx+si],al
00000496  0000              add [bx+si],al
00000498  0000              add [bx+si],al
0000049A  0000              add [bx+si],al
0000049C  0000              add [bx+si],al
0000049E  0000              add [bx+si],al
000004A0  55                push bp
000004A1  0000              add [bx+si],al
000004A3  0012              add [bp+si],dl
000004A5  0000              add [bx+si],al
000004A7  0000              add [bx+si],al
000004A9  0000              add [bx+si],al
000004AB  0000              add [bx+si],al
000004AD  0000              add [bx+si],al
000004AF  0000              add [bx+si],al
000004B1  0000              add [bx+si],al
000004B3  0000              add [bx+si],al
000004B5  0000              add [bx+si],al
000004B7  004D00            add [di+0x0],cl
000004BA  0000              add [bx+si],al
000004BC  1200              adc al,[bx+si]
000004BE  0000              add [bx+si],al
000004C0  0000              add [bx+si],al
000004C2  0000              add [bx+si],al
000004C4  0000              add [bx+si],al
000004C6  0000              add [bx+si],al
000004C8  0000              add [bx+si],al
000004CA  0000              add [bx+si],al
000004CC  0000              add [bx+si],al
000004CE  0000              add [bx+si],al
000004D0  D800              fadd dword [bx+si]
000004D2  0000              add [bx+si],al
000004D4  2000              and [bx+si],al
000004D6  0000              add [bx+si],al
000004D8  0000              add [bx+si],al
000004DA  0000              add [bx+si],al
000004DC  0000              add [bx+si],al
000004DE  0000              add [bx+si],al
000004E0  0000              add [bx+si],al
000004E2  0000              add [bx+si],al
000004E4  0000              add [bx+si],al
000004E6  0000              add [bx+si],al
000004E8  2A00              sub al,[bx+si]
000004EA  0000              add [bx+si],al
000004EC  1200              adc al,[bx+si]
000004EE  0000              add [bx+si],al
000004F0  0000              add [bx+si],al
000004F2  0000              add [bx+si],al
000004F4  0000              add [bx+si],al
000004F6  0000              add [bx+si],al
000004F8  0000              add [bx+si],al
000004FA  0000              add [bx+si],al
000004FC  0000              add [bx+si],al
000004FE  0000              add [bx+si],al
00000500  3400              xor al,0x0
00000502  0000              add [bx+si],al
00000504  1200              adc al,[bx+si]
00000506  0000              add [bx+si],al
00000508  0000              add [bx+si],al
0000050A  0000              add [bx+si],al
0000050C  0000              add [bx+si],al
0000050E  0000              add [bx+si],al
00000510  0000              add [bx+si],al
00000512  0000              add [bx+si],al
00000514  0000              add [bx+si],al
00000516  0000              add [bx+si],al
00000518  2400              and al,0x0
0000051A  0000              add [bx+si],al
0000051C  1200              adc al,[bx+si]
0000051E  0000              add [bx+si],al
00000520  0000              add [bx+si],al
00000522  0000              add [bx+si],al
00000524  0000              add [bx+si],al
00000526  0000              add [bx+si],al
00000528  0000              add [bx+si],al
0000052A  0000              add [bx+si],al
0000052C  0000              add [bx+si],al
0000052E  0000              add [bx+si],al
00000530  7100              jno 0x532
00000532  0000              add [bx+si],al
00000534  1200              adc al,[bx+si]
00000536  0000              add [bx+si],al
00000538  0000              add [bx+si],al
0000053A  0000              add [bx+si],al
0000053C  0000              add [bx+si],al
0000053E  0000              add [bx+si],al
00000540  0000              add [bx+si],al
00000542  0000              add [bx+si],al
00000544  0000              add [bx+si],al
00000546  0000              add [bx+si],al
00000548  2F                das
00000549  0000              add [bx+si],al
0000054B  0012              add [bp+si],dl
0000054D  0000              add [bx+si],al
0000054F  0000              add [bx+si],al
00000551  0000              add [bx+si],al
00000553  0000              add [bx+si],al
00000555  0000              add [bx+si],al
00000557  0000              add [bx+si],al
00000559  0000              add [bx+si],al
0000055B  0000              add [bx+si],al
0000055D  0000              add [bx+si],al
0000055F  0017              add [bx],dl
00000561  0000              add [bx+si],al
00000563  0012              add [bp+si],dl
00000565  0000              add [bx+si],al
00000567  0000              add [bx+si],al
00000569  0000              add [bx+si],al
0000056B  0000              add [bx+si],al
0000056D  0000              add [bx+si],al
0000056F  0000              add [bx+si],al
00000571  0000              add [bx+si],al
00000573  0000              add [bx+si],al
00000575  0000              add [bx+si],al
00000577  00800000          add [bx+si+0x0],al
0000057B  0012              add [bp+si],dl
0000057D  0000              add [bx+si],al
0000057F  0000              add [bx+si],al
00000581  0000              add [bx+si],al
00000583  0000              add [bx+si],al
00000585  0000              add [bx+si],al
00000587  0000              add [bx+si],al
00000589  0000              add [bx+si],al
0000058B  0000              add [bx+si],al
0000058D  0000              add [bx+si],al
0000058F  00E7              add bh,ah
00000591  0000              add [bx+si],al
00000593  0020              add [bx+si],ah
00000595  0000              add [bx+si],al
00000597  0000              add [bx+si],al
00000599  0000              add [bx+si],al
0000059B  0000              add [bx+si],al
0000059D  0000              add [bx+si],al
0000059F  0000              add [bx+si],al
000005A1  0000              add [bx+si],al
000005A3  0000              add [bx+si],al
000005A5  0000              add [bx+si],al
000005A7  005B00            add [bp+di+0x0],bl
000005AA  0000              add [bx+si],al
000005AC  2200              and al,[bx+si]
000005AE  0000              add [bx+si],al
000005B0  0000              add [bx+si],al
000005B2  0000              add [bx+si],al
000005B4  0000              add [bx+si],al
000005B6  0000              add [bx+si],al
000005B8  0000              add [bx+si],al
000005BA  0000              add [bx+si],al
000005BC  0000              add [bx+si],al
000005BE  0000              add [bx+si],al
000005C0  56                push si
000005C1  0000              add [bx+si],al
000005C3  0012              add [bp+si],dl
000005C5  0000              add [bx+si],al
000005C7  0000              add [bx+si],al
000005C9  0000              add [bx+si],al
000005CB  0000              add [bx+si],al
000005CD  0000              add [bx+si],al
000005CF  0000              add [bx+si],al
000005D1  0000              add [bx+si],al
000005D3  0000              add [bx+si],al
000005D5  0000              add [bx+si],al
000005D7  0000              add [bx+si],al
000005D9  7075              jo 0x650
000005DB  7473              jz 0x650
000005DD  005F5F            add [bx+0x5f],bl
000005E0  7374              jnc 0x656
000005E2  61                popa
000005E3  636B5F            arpl [bp+di+0x5f],bp
000005E6  63686B            arpl [bx+si+0x6b],bp
000005E9  5F                pop di
000005EA  6661              popad
000005EC  696C006578        imul bp,[si+0x0],word 0x7865
000005F1  6974007075        imul si,[si+0x0],word 0x7570
000005F6  7463              jz 0x65b
000005F8  686172            push word 0x7261
000005FB  00666F            add [bp+0x6f],ah
000005FE  7065              jo 0x665
00000600  6E                outsb
00000601  007469            add [si+0x69],dh
00000604  6D                insw
00000605  65006174          add [gs:bx+di+0x74],ah
00000609  6F                outsw
0000060A  69006D61          imul ax,[bx+si],word 0x616d
0000060E  6C                insb
0000060F  6C                insb
00000610  6F                outsw
00000611  6300              arpl [bx+si],ax
00000613  5F                pop di
00000614  5F                pop di
00000615  6C                insb
00000616  6962635F73        imul sp,[bp+si+0x63],word 0x735f
0000061B  7461              jz 0x67e
0000061D  7274              jc 0x693
0000061F  5F                pop di
00000620  6D                insw
00000621  61                popa
00000622  696E006670        imul bp,[bp+0x0],word 0x7066
00000627  7269              jc 0x692
00000629  6E                outsb
0000062A  7466              jz 0x692
0000062C  007372            add [bp+di+0x72],dh
0000062F  61                popa
00000630  6E                outsb
00000631  64005F5F          add [fs:bx+0x5f],bl
00000635  637861            arpl [bx+si+0x61],di
00000638  5F                pop di
00000639  66696E616C697A65  imul ebp,[bp+0x61],dword 0x657a696c
00000641  006663            add [bp+0x63],ah
00000644  6C                insb
00000645  6F                outsw
00000646  7365              jnc 0x6ad
00000648  005F5F            add [bx+0x5f],bl
0000064B  69736F6339        imul si,[bp+di+0x6f],word 0x3963
00000650  395F73            cmp [bx+0x73],bx
00000653  63616E            arpl [bx+di+0x6e],sp
00000656  66006677          o32 add [bp+0x77],ah
0000065A  7269              jc 0x6c5
0000065C  7465              jz 0x6c3
0000065E  006C69            add [si+0x69],ch
00000661  62632E            bound sp,[bp+di+0x2e]
00000664  736F              jnc 0x6d5
00000666  2E3600474C        add [ss:bx+0x4c],al
0000066B  49                dec cx
0000066C  42                inc dx
0000066D  43                inc bx
0000066E  5F                pop di
0000066F  322E3700          xor ch,[0x37]
00000673  47                inc di
00000674  4C                dec sp
00000675  49                dec cx
00000676  42                inc dx
00000677  43                inc bx
00000678  5F                pop di
00000679  322E3400          xor ch,[0x34]
0000067D  47                inc di
0000067E  4C                dec sp
0000067F  49                dec cx
00000680  42                inc dx
00000681  43                inc bx
00000682  5F                pop di
00000683  322E3334          xor ch,[0x3433]
00000687  00474C            add [bx+0x4c],al
0000068A  49                dec cx
0000068B  42                inc dx
0000068C  43                inc bx
0000068D  5F                pop di
0000068E  322E322E          xor ch,[0x2e32]
00000692  35005F            xor ax,0x5f00
00000695  49                dec cx
00000696  54                push sp
00000697  4D                dec bp
00000698  5F                pop di
00000699  64657265          gs jc 0x702
0000069D  676973746572      imul si,[ebx+0x74],word 0x7265
000006A3  54                push sp
000006A4  4D                dec bp
000006A5  43                inc bx
000006A6  6C                insb
000006A7  6F                outsw
000006A8  6E                outsb
000006A9  6554              gs push sp
000006AB  61                popa
000006AC  626C65            bound bp,[si+0x65]
000006AF  005F5F            add [bx+0x5f],bl
000006B2  676D              a32 insw
000006B4  6F                outsw
000006B5  6E                outsb
000006B6  5F                pop di
000006B7  7374              jnc 0x72d
000006B9  61                popa
000006BA  7274              jc 0x730
000006BC  5F                pop di
000006BD  5F                pop di
000006BE  005F49            add [bx+0x49],bl
000006C1  54                push sp
000006C2  4D                dec bp
000006C3  5F                pop di
000006C4  7265              jc 0x72b
000006C6  676973746572      imul si,[ebx+0x74],word 0x7265
000006CC  54                push sp
000006CD  4D                dec bp
000006CE  43                inc bx
000006CF  6C                insb
000006D0  6F                outsw
000006D1  6E                outsb
000006D2  6554              gs push sp
000006D4  61                popa
000006D5  626C65            bound bp,[si+0x65]
000006D8  0000              add [bx+si],al
000006DA  0000              add [bx+si],al
000006DC  0200              add al,[bx+si]
000006DE  0300              add ax,[bx+si]
000006E0  0100              add [bx+si],ax
000006E2  0200              add al,[bx+si]
000006E4  0200              add al,[bx+si]
000006E6  0400              add al,0x0
000006E8  0200              add al,[bx+si]
000006EA  0200              add al,[bx+si]
000006EC  0200              add al,[bx+si]
000006EE  0100              add [bx+si],ax
000006F0  0200              add al,[bx+si]
000006F2  0200              add al,[bx+si]
000006F4  0200              add al,[bx+si]
000006F6  050002            add ax,0x200
000006F9  0002              add [bp+si],al
000006FB  0002              add [bp+si],al
000006FD  0001              add [bx+di],al
000006FF  0002              add [bp+si],al
00000701  0002              add [bp+si],al
00000703  0000              add [bx+si],al
00000705  0000              add [bx+si],al
00000707  0001              add [bx+di],al
00000709  0004              add [si],al
0000070B  00870000          add [bx+0x0],al
0000070F  0010              add [bx+si],dl
00000711  0000              add [bx+si],al
00000713  0000              add [bx+si],al
00000715  0000              add [bx+si],al
00000717  0017              add [bx],dl
00000719  69690D0000        imul bp,[bx+di+0xd],word 0x0
0000071E  050091            add ax,0x9100
00000721  0000              add [bx+si],al
00000723  0010              add [bx+si],dl
00000725  0000              add [bx+si],al
00000727  0014              add [si],dl
00000729  69690D0000        imul bp,[bx+di+0xd],word 0x0
0000072E  0400              add al,0x0
00000730  9B0000            wait add [bx+si],al
00000733  0010              add [bx+si],dl
00000735  0000              add [bx+si],al
00000737  00B49196          add [si-0x696f],dh
0000073B  06                push es
0000073C  0000              add [bx+si],al
0000073E  0300              add ax,[bx+si]
00000740  A5                movsw
00000741  0000              add [bx+si],al
00000743  0010              add [bx+si],dl
00000745  0000              add [bx+si],al
00000747  00751A            add [di+0x1a],dh
0000074A  69090000          imul cx,[bx+di],word 0x0
0000074E  0200              add al,[bx+si]
00000750  B000              mov al,0x0
00000752  0000              add [bx+si],al
00000754  0000              add [bx+si],al
00000756  0000              add [bx+si],al
00000758  D03D              sar byte [di],1
0000075A  0000              add [bx+si],al
0000075C  0000              add [bx+si],al
0000075E  0000              add [bx+si],al
00000760  0800              or [bx+si],al
00000762  0000              add [bx+si],al
00000764  0000              add [bx+si],al
00000766  0000              add [bx+si],al
00000768  1012              adc [bp+si],dl
0000076A  0000              add [bx+si],al
0000076C  0000              add [bx+si],al
0000076E  0000              add [bx+si],al
00000770  D83D              fdivr dword [di]
00000772  0000              add [bx+si],al
00000774  0000              add [bx+si],al
00000776  0000              add [bx+si],al
00000778  0800              or [bx+si],al
0000077A  0000              add [bx+si],al
0000077C  0000              add [bx+si],al
0000077E  0000              add [bx+si],al
00000780  C01100            rcl byte [bx+di],byte 0x0
00000783  0000              add [bx+si],al
00000785  0000              add [bx+si],al
00000787  00804000          add [bx+si+0x40],al
0000078B  0000              add [bx+si],al
0000078D  0000              add [bx+si],al
0000078F  0008              add [bx+si],cl
00000791  0000              add [bx+si],al
00000793  0000              add [bx+si],al
00000795  0000              add [bx+si],al
00000797  00804000          add [bx+si+0x40],al
0000079B  0000              add [bx+si],al
0000079D  0000              add [bx+si],al
0000079F  00C0              add al,al
000007A1  3F                aas
000007A2  0000              add [bx+si],al
000007A4  0000              add [bx+si],al
000007A6  0000              add [bx+si],al
000007A8  06                push es
000007A9  0000              add [bx+si],al
000007AB  0002              add [bp+si],al
000007AD  0000              add [bx+si],al
000007AF  0000              add [bx+si],al
000007B1  0000              add [bx+si],al
000007B3  0000              add [bx+si],al
000007B5  0000              add [bx+si],al
000007B7  00C8              add al,cl
000007B9  3F                aas
000007BA  0000              add [bx+si],al
000007BC  0000              add [bx+si],al
000007BE  0000              add [bx+si],al
000007C0  06                push es
000007C1  0000              add [bx+si],al
000007C3  0003              add [bp+di],al
000007C5  0000              add [bx+si],al
000007C7  0000              add [bx+si],al
000007C9  0000              add [bx+si],al
000007CB  0000              add [bx+si],al
000007CD  0000              add [bx+si],al
000007CF  00D0              add al,dl
000007D1  3F                aas
000007D2  0000              add [bx+si],al
000007D4  0000              add [bx+si],al
000007D6  0000              add [bx+si],al
000007D8  06                push es
000007D9  0000              add [bx+si],al
000007DB  000A              add [bp+si],cl
000007DD  0000              add [bx+si],al
000007DF  0000              add [bx+si],al
000007E1  0000              add [bx+si],al
000007E3  0000              add [bx+si],al
000007E5  0000              add [bx+si],al
000007E7  00D8              add al,bl
000007E9  3F                aas
000007EA  0000              add [bx+si],al
000007EC  0000              add [bx+si],al
000007EE  0000              add [bx+si],al
000007F0  06                push es
000007F1  0000              add [bx+si],al
000007F3  0012              add [bp+si],dl
000007F5  0000              add [bx+si],al
000007F7  0000              add [bx+si],al
000007F9  0000              add [bx+si],al
000007FB  0000              add [bx+si],al
000007FD  0000              add [bx+si],al
000007FF  00E0              add al,ah
00000801  3F                aas
00000802  0000              add [bx+si],al
00000804  0000              add [bx+si],al
00000806  0000              add [bx+si],al
00000808  06                push es
00000809  0000              add [bx+si],al
0000080B  0013              add [bp+di],dl
0000080D  0000              add [bx+si],al
0000080F  0000              add [bx+si],al
00000811  0000              add [bx+si],al
00000813  0000              add [bx+si],al
00000815  0000              add [bx+si],al
00000817  0000              add [bx+si],al
00000819  40                inc ax
0000081A  0000              add [bx+si],al
0000081C  0000              add [bx+si],al
0000081E  0000              add [bx+si],al
00000820  07                pop es
00000821  0000              add [bx+si],al
00000823  0001              add [bx+di],al
00000825  0000              add [bx+si],al
00000827  0000              add [bx+si],al
00000829  0000              add [bx+si],al
0000082B  0000              add [bx+si],al
0000082D  0000              add [bx+si],al
0000082F  0008              add [bx+si],cl
00000831  40                inc ax
00000832  0000              add [bx+si],al
00000834  0000              add [bx+si],al
00000836  0000              add [bx+si],al
00000838  07                pop es
00000839  0000              add [bx+si],al
0000083B  0004              add [si],al
0000083D  0000              add [bx+si],al
0000083F  0000              add [bx+si],al
00000841  0000              add [bx+si],al
00000843  0000              add [bx+si],al
00000845  0000              add [bx+si],al
00000847  0010              add [bx+si],dl
00000849  40                inc ax
0000084A  0000              add [bx+si],al
0000084C  0000              add [bx+si],al
0000084E  0000              add [bx+si],al
00000850  07                pop es
00000851  0000              add [bx+si],al
00000853  0005              add [di],al
00000855  0000              add [bx+si],al
00000857  0000              add [bx+si],al
00000859  0000              add [bx+si],al
0000085B  0000              add [bx+si],al
0000085D  0000              add [bx+si],al
0000085F  0018              add [bx+si],bl
00000861  40                inc ax
00000862  0000              add [bx+si],al
00000864  0000              add [bx+si],al
00000866  0000              add [bx+si],al
00000868  07                pop es
00000869  0000              add [bx+si],al
0000086B  00060000          add [0x0],al
0000086F  0000              add [bx+si],al
00000871  0000              add [bx+si],al
00000873  0000              add [bx+si],al
00000875  0000              add [bx+si],al
00000877  0020              add [bx+si],ah
00000879  40                inc ax
0000087A  0000              add [bx+si],al
0000087C  0000              add [bx+si],al
0000087E  0000              add [bx+si],al
00000880  07                pop es
00000881  0000              add [bx+si],al
00000883  0007              add [bx],al
00000885  0000              add [bx+si],al
00000887  0000              add [bx+si],al
00000889  0000              add [bx+si],al
0000088B  0000              add [bx+si],al
0000088D  0000              add [bx+si],al
0000088F  0028              add [bx+si],ch
00000891  40                inc ax
00000892  0000              add [bx+si],al
00000894  0000              add [bx+si],al
00000896  0000              add [bx+si],al
00000898  07                pop es
00000899  0000              add [bx+si],al
0000089B  0008              add [bx+si],cl
0000089D  0000              add [bx+si],al
0000089F  0000              add [bx+si],al
000008A1  0000              add [bx+si],al
000008A3  0000              add [bx+si],al
000008A5  0000              add [bx+si],al
000008A7  0030              add [bx+si],dh
000008A9  40                inc ax
000008AA  0000              add [bx+si],al
000008AC  0000              add [bx+si],al
000008AE  0000              add [bx+si],al
000008B0  07                pop es
000008B1  0000              add [bx+si],al
000008B3  0009              add [bx+di],cl
000008B5  0000              add [bx+si],al
000008B7  0000              add [bx+si],al
000008B9  0000              add [bx+si],al
000008BB  0000              add [bx+si],al
000008BD  0000              add [bx+si],al
000008BF  0038              add [bx+si],bh
000008C1  40                inc ax
000008C2  0000              add [bx+si],al
000008C4  0000              add [bx+si],al
000008C6  0000              add [bx+si],al
000008C8  07                pop es
000008C9  0000              add [bx+si],al
000008CB  000B              add [bp+di],cl
000008CD  0000              add [bx+si],al
000008CF  0000              add [bx+si],al
000008D1  0000              add [bx+si],al
000008D3  0000              add [bx+si],al
000008D5  0000              add [bx+si],al
000008D7  004040            add [bx+si+0x40],al
000008DA  0000              add [bx+si],al
000008DC  0000              add [bx+si],al
000008DE  0000              add [bx+si],al
000008E0  07                pop es
000008E1  0000              add [bx+si],al
000008E3  000C              add [si],cl
000008E5  0000              add [bx+si],al
000008E7  0000              add [bx+si],al
000008E9  0000              add [bx+si],al
000008EB  0000              add [bx+si],al
000008ED  0000              add [bx+si],al
000008EF  004840            add [bx+si+0x40],cl
000008F2  0000              add [bx+si],al
000008F4  0000              add [bx+si],al
000008F6  0000              add [bx+si],al
000008F8  07                pop es
000008F9  0000              add [bx+si],al
000008FB  000D              add [di],cl
000008FD  0000              add [bx+si],al
000008FF  0000              add [bx+si],al
00000901  0000              add [bx+si],al
00000903  0000              add [bx+si],al
00000905  0000              add [bx+si],al
00000907  005040            add [bx+si+0x40],dl
0000090A  0000              add [bx+si],al
0000090C  0000              add [bx+si],al
0000090E  0000              add [bx+si],al
00000910  07                pop es
00000911  0000              add [bx+si],al
00000913  000E0000          add [0x0],cl
00000917  0000              add [bx+si],al
00000919  0000              add [bx+si],al
0000091B  0000              add [bx+si],al
0000091D  0000              add [bx+si],al
0000091F  005840            add [bx+si+0x40],bl
00000922  0000              add [bx+si],al
00000924  0000              add [bx+si],al
00000926  0000              add [bx+si],al
00000928  07                pop es
00000929  0000              add [bx+si],al
0000092B  000F              add [bx],cl
0000092D  0000              add [bx+si],al
0000092F  0000              add [bx+si],al
00000931  0000              add [bx+si],al
00000933  0000              add [bx+si],al
00000935  0000              add [bx+si],al
00000937  006040            add [bx+si+0x40],ah
0000093A  0000              add [bx+si],al
0000093C  0000              add [bx+si],al
0000093E  0000              add [bx+si],al
00000940  07                pop es
00000941  0000              add [bx+si],al
00000943  0010              add [bx+si],dl
00000945  0000              add [bx+si],al
00000947  0000              add [bx+si],al
00000949  0000              add [bx+si],al
0000094B  0000              add [bx+si],al
0000094D  0000              add [bx+si],al
0000094F  006840            add [bx+si+0x40],ch
00000952  0000              add [bx+si],al
00000954  0000              add [bx+si],al
00000956  0000              add [bx+si],al
00000958  07                pop es
00000959  0000              add [bx+si],al
0000095B  0011              add [bx+di],dl
0000095D  0000              add [bx+si],al
0000095F  0000              add [bx+si],al
00000961  0000              add [bx+si],al
00000963  0000              add [bx+si],al
00000965  0000              add [bx+si],al
00000967  007040            add [bx+si+0x40],dh
0000096A  0000              add [bx+si],al
0000096C  0000              add [bx+si],al
0000096E  0000              add [bx+si],al
00000970  07                pop es
00000971  0000              add [bx+si],al
00000973  0014              add [si],dl
00000975  0000              add [bx+si],al
00000977  0000              add [bx+si],al
00000979  0000              add [bx+si],al
0000097B  0000              add [bx+si],al
0000097D  0000              add [bx+si],al
0000097F  0000              add [bx+si],al
00000981  0000              add [bx+si],al
00000983  0000              add [bx+si],al
00000985  0000              add [bx+si],al
00000987  0000              add [bx+si],al
00000989  0000              add [bx+si],al
0000098B  0000              add [bx+si],al
0000098D  0000              add [bx+si],al
0000098F  0000              add [bx+si],al
00000991  0000              add [bx+si],al
00000993  0000              add [bx+si],al
00000995  0000              add [bx+si],al
00000997  0000              add [bx+si],al
00000999  0000              add [bx+si],al
0000099B  0000              add [bx+si],al
0000099D  0000              add [bx+si],al
0000099F  0000              add [bx+si],al
000009A1  0000              add [bx+si],al
000009A3  0000              add [bx+si],al
000009A5  0000              add [bx+si],al
000009A7  0000              add [bx+si],al
000009A9  0000              add [bx+si],al
000009AB  0000              add [bx+si],al
000009AD  0000              add [bx+si],al
000009AF  0000              add [bx+si],al
000009B1  0000              add [bx+si],al
000009B3  0000              add [bx+si],al
000009B5  0000              add [bx+si],al
000009B7  0000              add [bx+si],al
000009B9  0000              add [bx+si],al
000009BB  0000              add [bx+si],al
000009BD  0000              add [bx+si],al
000009BF  0000              add [bx+si],al
000009C1  0000              add [bx+si],al
000009C3  0000              add [bx+si],al
000009C5  0000              add [bx+si],al
000009C7  0000              add [bx+si],al
000009C9  0000              add [bx+si],al
000009CB  0000              add [bx+si],al
000009CD  0000              add [bx+si],al
000009CF  0000              add [bx+si],al
000009D1  0000              add [bx+si],al
000009D3  0000              add [bx+si],al
000009D5  0000              add [bx+si],al
000009D7  0000              add [bx+si],al
000009D9  0000              add [bx+si],al
000009DB  0000              add [bx+si],al
000009DD  0000              add [bx+si],al
000009DF  0000              add [bx+si],al
000009E1  0000              add [bx+si],al
000009E3  0000              add [bx+si],al
000009E5  0000              add [bx+si],al
000009E7  0000              add [bx+si],al
000009E9  0000              add [bx+si],al
000009EB  0000              add [bx+si],al
000009ED  0000              add [bx+si],al
000009EF  0000              add [bx+si],al
000009F1  0000              add [bx+si],al
000009F3  0000              add [bx+si],al
000009F5  0000              add [bx+si],al
000009F7  0000              add [bx+si],al
000009F9  0000              add [bx+si],al
000009FB  0000              add [bx+si],al
000009FD  0000              add [bx+si],al
000009FF  0000              add [bx+si],al
00000A01  0000              add [bx+si],al
00000A03  0000              add [bx+si],al
00000A05  0000              add [bx+si],al
00000A07  0000              add [bx+si],al
00000A09  0000              add [bx+si],al
00000A0B  0000              add [bx+si],al
00000A0D  0000              add [bx+si],al
00000A0F  0000              add [bx+si],al
00000A11  0000              add [bx+si],al
00000A13  0000              add [bx+si],al
00000A15  0000              add [bx+si],al
00000A17  0000              add [bx+si],al
00000A19  0000              add [bx+si],al
00000A1B  0000              add [bx+si],al
00000A1D  0000              add [bx+si],al
00000A1F  0000              add [bx+si],al
00000A21  0000              add [bx+si],al
00000A23  0000              add [bx+si],al
00000A25  0000              add [bx+si],al
00000A27  0000              add [bx+si],al
00000A29  0000              add [bx+si],al
00000A2B  0000              add [bx+si],al
00000A2D  0000              add [bx+si],al
00000A2F  0000              add [bx+si],al
00000A31  0000              add [bx+si],al
00000A33  0000              add [bx+si],al
00000A35  0000              add [bx+si],al
00000A37  0000              add [bx+si],al
00000A39  0000              add [bx+si],al
00000A3B  0000              add [bx+si],al
00000A3D  0000              add [bx+si],al
00000A3F  0000              add [bx+si],al
00000A41  0000              add [bx+si],al
00000A43  0000              add [bx+si],al
00000A45  0000              add [bx+si],al
00000A47  0000              add [bx+si],al
00000A49  0000              add [bx+si],al
00000A4B  0000              add [bx+si],al
00000A4D  0000              add [bx+si],al
00000A4F  0000              add [bx+si],al
00000A51  0000              add [bx+si],al
00000A53  0000              add [bx+si],al
00000A55  0000              add [bx+si],al
00000A57  0000              add [bx+si],al
00000A59  0000              add [bx+si],al
00000A5B  0000              add [bx+si],al
00000A5D  0000              add [bx+si],al
00000A5F  0000              add [bx+si],al
00000A61  0000              add [bx+si],al
00000A63  0000              add [bx+si],al
00000A65  0000              add [bx+si],al
00000A67  0000              add [bx+si],al
00000A69  0000              add [bx+si],al
00000A6B  0000              add [bx+si],al
00000A6D  0000              add [bx+si],al
00000A6F  0000              add [bx+si],al
00000A71  0000              add [bx+si],al
00000A73  0000              add [bx+si],al
00000A75  0000              add [bx+si],al
00000A77  0000              add [bx+si],al
00000A79  0000              add [bx+si],al
00000A7B  0000              add [bx+si],al
00000A7D  0000              add [bx+si],al
00000A7F  0000              add [bx+si],al
00000A81  0000              add [bx+si],al
00000A83  0000              add [bx+si],al
00000A85  0000              add [bx+si],al
00000A87  0000              add [bx+si],al
00000A89  0000              add [bx+si],al
00000A8B  0000              add [bx+si],al
00000A8D  0000              add [bx+si],al
00000A8F  0000              add [bx+si],al
00000A91  0000              add [bx+si],al
00000A93  0000              add [bx+si],al
00000A95  0000              add [bx+si],al
00000A97  0000              add [bx+si],al
00000A99  0000              add [bx+si],al
00000A9B  0000              add [bx+si],al
00000A9D  0000              add [bx+si],al
00000A9F  0000              add [bx+si],al
00000AA1  0000              add [bx+si],al
00000AA3  0000              add [bx+si],al
00000AA5  0000              add [bx+si],al
00000AA7  0000              add [bx+si],al
00000AA9  0000              add [bx+si],al
00000AAB  0000              add [bx+si],al
00000AAD  0000              add [bx+si],al
00000AAF  0000              add [bx+si],al
00000AB1  0000              add [bx+si],al
00000AB3  0000              add [bx+si],al
00000AB5  0000              add [bx+si],al
00000AB7  0000              add [bx+si],al
00000AB9  0000              add [bx+si],al
00000ABB  0000              add [bx+si],al
00000ABD  0000              add [bx+si],al
00000ABF  0000              add [bx+si],al
00000AC1  0000              add [bx+si],al
00000AC3  0000              add [bx+si],al
00000AC5  0000              add [bx+si],al
00000AC7  0000              add [bx+si],al
00000AC9  0000              add [bx+si],al
00000ACB  0000              add [bx+si],al
00000ACD  0000              add [bx+si],al
00000ACF  0000              add [bx+si],al
00000AD1  0000              add [bx+si],al
00000AD3  0000              add [bx+si],al
00000AD5  0000              add [bx+si],al
00000AD7  0000              add [bx+si],al
00000AD9  0000              add [bx+si],al
00000ADB  0000              add [bx+si],al
00000ADD  0000              add [bx+si],al
00000ADF  0000              add [bx+si],al
00000AE1  0000              add [bx+si],al
00000AE3  0000              add [bx+si],al
00000AE5  0000              add [bx+si],al
00000AE7  0000              add [bx+si],al
00000AE9  0000              add [bx+si],al
00000AEB  0000              add [bx+si],al
00000AED  0000              add [bx+si],al
00000AEF  0000              add [bx+si],al
00000AF1  0000              add [bx+si],al
00000AF3  0000              add [bx+si],al
00000AF5  0000              add [bx+si],al
00000AF7  0000              add [bx+si],al
00000AF9  0000              add [bx+si],al
00000AFB  0000              add [bx+si],al
00000AFD  0000              add [bx+si],al
00000AFF  0000              add [bx+si],al
00000B01  0000              add [bx+si],al
00000B03  0000              add [bx+si],al
00000B05  0000              add [bx+si],al
00000B07  0000              add [bx+si],al
00000B09  0000              add [bx+si],al
00000B0B  0000              add [bx+si],al
00000B0D  0000              add [bx+si],al
00000B0F  0000              add [bx+si],al
00000B11  0000              add [bx+si],al
00000B13  0000              add [bx+si],al
00000B15  0000              add [bx+si],al
00000B17  0000              add [bx+si],al
00000B19  0000              add [bx+si],al
00000B1B  0000              add [bx+si],al
00000B1D  0000              add [bx+si],al
00000B1F  0000              add [bx+si],al
00000B21  0000              add [bx+si],al
00000B23  0000              add [bx+si],al
00000B25  0000              add [bx+si],al
00000B27  0000              add [bx+si],al
00000B29  0000              add [bx+si],al
00000B2B  0000              add [bx+si],al
00000B2D  0000              add [bx+si],al
00000B2F  0000              add [bx+si],al
00000B31  0000              add [bx+si],al
00000B33  0000              add [bx+si],al
00000B35  0000              add [bx+si],al
00000B37  0000              add [bx+si],al
00000B39  0000              add [bx+si],al
00000B3B  0000              add [bx+si],al
00000B3D  0000              add [bx+si],al
00000B3F  0000              add [bx+si],al
00000B41  0000              add [bx+si],al
00000B43  0000              add [bx+si],al
00000B45  0000              add [bx+si],al
00000B47  0000              add [bx+si],al
00000B49  0000              add [bx+si],al
00000B4B  0000              add [bx+si],al
00000B4D  0000              add [bx+si],al
00000B4F  0000              add [bx+si],al
00000B51  0000              add [bx+si],al
00000B53  0000              add [bx+si],al
00000B55  0000              add [bx+si],al
00000B57  0000              add [bx+si],al
00000B59  0000              add [bx+si],al
00000B5B  0000              add [bx+si],al
00000B5D  0000              add [bx+si],al
00000B5F  0000              add [bx+si],al
00000B61  0000              add [bx+si],al
00000B63  0000              add [bx+si],al
00000B65  0000              add [bx+si],al
00000B67  0000              add [bx+si],al
00000B69  0000              add [bx+si],al
00000B6B  0000              add [bx+si],al
00000B6D  0000              add [bx+si],al
00000B6F  0000              add [bx+si],al
00000B71  0000              add [bx+si],al
00000B73  0000              add [bx+si],al
00000B75  0000              add [bx+si],al
00000B77  0000              add [bx+si],al
00000B79  0000              add [bx+si],al
00000B7B  0000              add [bx+si],al
00000B7D  0000              add [bx+si],al
00000B7F  0000              add [bx+si],al
00000B81  0000              add [bx+si],al
00000B83  0000              add [bx+si],al
00000B85  0000              add [bx+si],al
00000B87  0000              add [bx+si],al
00000B89  0000              add [bx+si],al
00000B8B  0000              add [bx+si],al
00000B8D  0000              add [bx+si],al
00000B8F  0000              add [bx+si],al
00000B91  0000              add [bx+si],al
00000B93  0000              add [bx+si],al
00000B95  0000              add [bx+si],al
00000B97  0000              add [bx+si],al
00000B99  0000              add [bx+si],al
00000B9B  0000              add [bx+si],al
00000B9D  0000              add [bx+si],al
00000B9F  0000              add [bx+si],al
00000BA1  0000              add [bx+si],al
00000BA3  0000              add [bx+si],al
00000BA5  0000              add [bx+si],al
00000BA7  0000              add [bx+si],al
00000BA9  0000              add [bx+si],al
00000BAB  0000              add [bx+si],al
00000BAD  0000              add [bx+si],al
00000BAF  0000              add [bx+si],al
00000BB1  0000              add [bx+si],al
00000BB3  0000              add [bx+si],al
00000BB5  0000              add [bx+si],al
00000BB7  0000              add [bx+si],al
00000BB9  0000              add [bx+si],al
00000BBB  0000              add [bx+si],al
00000BBD  0000              add [bx+si],al
00000BBF  0000              add [bx+si],al
00000BC1  0000              add [bx+si],al
00000BC3  0000              add [bx+si],al
00000BC5  0000              add [bx+si],al
00000BC7  0000              add [bx+si],al
00000BC9  0000              add [bx+si],al
00000BCB  0000              add [bx+si],al
00000BCD  0000              add [bx+si],al
00000BCF  0000              add [bx+si],al
00000BD1  0000              add [bx+si],al
00000BD3  0000              add [bx+si],al
00000BD5  0000              add [bx+si],al
00000BD7  0000              add [bx+si],al
00000BD9  0000              add [bx+si],al
00000BDB  0000              add [bx+si],al
00000BDD  0000              add [bx+si],al
00000BDF  0000              add [bx+si],al
00000BE1  0000              add [bx+si],al
00000BE3  0000              add [bx+si],al
00000BE5  0000              add [bx+si],al
00000BE7  0000              add [bx+si],al
00000BE9  0000              add [bx+si],al
00000BEB  0000              add [bx+si],al
00000BED  0000              add [bx+si],al
00000BEF  0000              add [bx+si],al
00000BF1  0000              add [bx+si],al
00000BF3  0000              add [bx+si],al
00000BF5  0000              add [bx+si],al
00000BF7  0000              add [bx+si],al
00000BF9  0000              add [bx+si],al
00000BFB  0000              add [bx+si],al
00000BFD  0000              add [bx+si],al
00000BFF  0000              add [bx+si],al
00000C01  0000              add [bx+si],al
00000C03  0000              add [bx+si],al
00000C05  0000              add [bx+si],al
00000C07  0000              add [bx+si],al
00000C09  0000              add [bx+si],al
00000C0B  0000              add [bx+si],al
00000C0D  0000              add [bx+si],al
00000C0F  0000              add [bx+si],al
00000C11  0000              add [bx+si],al
00000C13  0000              add [bx+si],al
00000C15  0000              add [bx+si],al
00000C17  0000              add [bx+si],al
00000C19  0000              add [bx+si],al
00000C1B  0000              add [bx+si],al
00000C1D  0000              add [bx+si],al
00000C1F  0000              add [bx+si],al
00000C21  0000              add [bx+si],al
00000C23  0000              add [bx+si],al
00000C25  0000              add [bx+si],al
00000C27  0000              add [bx+si],al
00000C29  0000              add [bx+si],al
00000C2B  0000              add [bx+si],al
00000C2D  0000              add [bx+si],al
00000C2F  0000              add [bx+si],al
00000C31  0000              add [bx+si],al
00000C33  0000              add [bx+si],al
00000C35  0000              add [bx+si],al
00000C37  0000              add [bx+si],al
00000C39  0000              add [bx+si],al
00000C3B  0000              add [bx+si],al
00000C3D  0000              add [bx+si],al
00000C3F  0000              add [bx+si],al
00000C41  0000              add [bx+si],al
00000C43  0000              add [bx+si],al
00000C45  0000              add [bx+si],al
00000C47  0000              add [bx+si],al
00000C49  0000              add [bx+si],al
00000C4B  0000              add [bx+si],al
00000C4D  0000              add [bx+si],al
00000C4F  0000              add [bx+si],al
00000C51  0000              add [bx+si],al
00000C53  0000              add [bx+si],al
00000C55  0000              add [bx+si],al
00000C57  0000              add [bx+si],al
00000C59  0000              add [bx+si],al
00000C5B  0000              add [bx+si],al
00000C5D  0000              add [bx+si],al
00000C5F  0000              add [bx+si],al
00000C61  0000              add [bx+si],al
00000C63  0000              add [bx+si],al
00000C65  0000              add [bx+si],al
00000C67  0000              add [bx+si],al
00000C69  0000              add [bx+si],al
00000C6B  0000              add [bx+si],al
00000C6D  0000              add [bx+si],al
00000C6F  0000              add [bx+si],al
00000C71  0000              add [bx+si],al
00000C73  0000              add [bx+si],al
00000C75  0000              add [bx+si],al
00000C77  0000              add [bx+si],al
00000C79  0000              add [bx+si],al
00000C7B  0000              add [bx+si],al
00000C7D  0000              add [bx+si],al
00000C7F  0000              add [bx+si],al
00000C81  0000              add [bx+si],al
00000C83  0000              add [bx+si],al
00000C85  0000              add [bx+si],al
00000C87  0000              add [bx+si],al
00000C89  0000              add [bx+si],al
00000C8B  0000              add [bx+si],al
00000C8D  0000              add [bx+si],al
00000C8F  0000              add [bx+si],al
00000C91  0000              add [bx+si],al
00000C93  0000              add [bx+si],al
00000C95  0000              add [bx+si],al
00000C97  0000              add [bx+si],al
00000C99  0000              add [bx+si],al
00000C9B  0000              add [bx+si],al
00000C9D  0000              add [bx+si],al
00000C9F  0000              add [bx+si],al
00000CA1  0000              add [bx+si],al
00000CA3  0000              add [bx+si],al
00000CA5  0000              add [bx+si],al
00000CA7  0000              add [bx+si],al
00000CA9  0000              add [bx+si],al
00000CAB  0000              add [bx+si],al
00000CAD  0000              add [bx+si],al
00000CAF  0000              add [bx+si],al
00000CB1  0000              add [bx+si],al
00000CB3  0000              add [bx+si],al
00000CB5  0000              add [bx+si],al
00000CB7  0000              add [bx+si],al
00000CB9  0000              add [bx+si],al
00000CBB  0000              add [bx+si],al
00000CBD  0000              add [bx+si],al
00000CBF  0000              add [bx+si],al
00000CC1  0000              add [bx+si],al
00000CC3  0000              add [bx+si],al
00000CC5  0000              add [bx+si],al
00000CC7  0000              add [bx+si],al
00000CC9  0000              add [bx+si],al
00000CCB  0000              add [bx+si],al
00000CCD  0000              add [bx+si],al
00000CCF  0000              add [bx+si],al
00000CD1  0000              add [bx+si],al
00000CD3  0000              add [bx+si],al
00000CD5  0000              add [bx+si],al
00000CD7  0000              add [bx+si],al
00000CD9  0000              add [bx+si],al
00000CDB  0000              add [bx+si],al
00000CDD  0000              add [bx+si],al
00000CDF  0000              add [bx+si],al
00000CE1  0000              add [bx+si],al
00000CE3  0000              add [bx+si],al
00000CE5  0000              add [bx+si],al
00000CE7  0000              add [bx+si],al
00000CE9  0000              add [bx+si],al
00000CEB  0000              add [bx+si],al
00000CED  0000              add [bx+si],al
00000CEF  0000              add [bx+si],al
00000CF1  0000              add [bx+si],al
00000CF3  0000              add [bx+si],al
00000CF5  0000              add [bx+si],al
00000CF7  0000              add [bx+si],al
00000CF9  0000              add [bx+si],al
00000CFB  0000              add [bx+si],al
00000CFD  0000              add [bx+si],al
00000CFF  0000              add [bx+si],al
00000D01  0000              add [bx+si],al
00000D03  0000              add [bx+si],al
00000D05  0000              add [bx+si],al
00000D07  0000              add [bx+si],al
00000D09  0000              add [bx+si],al
00000D0B  0000              add [bx+si],al
00000D0D  0000              add [bx+si],al
00000D0F  0000              add [bx+si],al
00000D11  0000              add [bx+si],al
00000D13  0000              add [bx+si],al
00000D15  0000              add [bx+si],al
00000D17  0000              add [bx+si],al
00000D19  0000              add [bx+si],al
00000D1B  0000              add [bx+si],al
00000D1D  0000              add [bx+si],al
00000D1F  0000              add [bx+si],al
00000D21  0000              add [bx+si],al
00000D23  0000              add [bx+si],al
00000D25  0000              add [bx+si],al
00000D27  0000              add [bx+si],al
00000D29  0000              add [bx+si],al
00000D2B  0000              add [bx+si],al
00000D2D  0000              add [bx+si],al
00000D2F  0000              add [bx+si],al
00000D31  0000              add [bx+si],al
00000D33  0000              add [bx+si],al
00000D35  0000              add [bx+si],al
00000D37  0000              add [bx+si],al
00000D39  0000              add [bx+si],al
00000D3B  0000              add [bx+si],al
00000D3D  0000              add [bx+si],al
00000D3F  0000              add [bx+si],al
00000D41  0000              add [bx+si],al
00000D43  0000              add [bx+si],al
00000D45  0000              add [bx+si],al
00000D47  0000              add [bx+si],al
00000D49  0000              add [bx+si],al
00000D4B  0000              add [bx+si],al
00000D4D  0000              add [bx+si],al
00000D4F  0000              add [bx+si],al
00000D51  0000              add [bx+si],al
00000D53  0000              add [bx+si],al
00000D55  0000              add [bx+si],al
00000D57  0000              add [bx+si],al
00000D59  0000              add [bx+si],al
00000D5B  0000              add [bx+si],al
00000D5D  0000              add [bx+si],al
00000D5F  0000              add [bx+si],al
00000D61  0000              add [bx+si],al
00000D63  0000              add [bx+si],al
00000D65  0000              add [bx+si],al
00000D67  0000              add [bx+si],al
00000D69  0000              add [bx+si],al
00000D6B  0000              add [bx+si],al
00000D6D  0000              add [bx+si],al
00000D6F  0000              add [bx+si],al
00000D71  0000              add [bx+si],al
00000D73  0000              add [bx+si],al
00000D75  0000              add [bx+si],al
00000D77  0000              add [bx+si],al
00000D79  0000              add [bx+si],al
00000D7B  0000              add [bx+si],al
00000D7D  0000              add [bx+si],al
00000D7F  0000              add [bx+si],al
00000D81  0000              add [bx+si],al
00000D83  0000              add [bx+si],al
00000D85  0000              add [bx+si],al
00000D87  0000              add [bx+si],al
00000D89  0000              add [bx+si],al
00000D8B  0000              add [bx+si],al
00000D8D  0000              add [bx+si],al
00000D8F  0000              add [bx+si],al
00000D91  0000              add [bx+si],al
00000D93  0000              add [bx+si],al
00000D95  0000              add [bx+si],al
00000D97  0000              add [bx+si],al
00000D99  0000              add [bx+si],al
00000D9B  0000              add [bx+si],al
00000D9D  0000              add [bx+si],al
00000D9F  0000              add [bx+si],al
00000DA1  0000              add [bx+si],al
00000DA3  0000              add [bx+si],al
00000DA5  0000              add [bx+si],al
00000DA7  0000              add [bx+si],al
00000DA9  0000              add [bx+si],al
00000DAB  0000              add [bx+si],al
00000DAD  0000              add [bx+si],al
00000DAF  0000              add [bx+si],al
00000DB1  0000              add [bx+si],al
00000DB3  0000              add [bx+si],al
00000DB5  0000              add [bx+si],al
00000DB7  0000              add [bx+si],al
00000DB9  0000              add [bx+si],al
00000DBB  0000              add [bx+si],al
00000DBD  0000              add [bx+si],al
00000DBF  0000              add [bx+si],al
00000DC1  0000              add [bx+si],al
00000DC3  0000              add [bx+si],al
00000DC5  0000              add [bx+si],al
00000DC7  0000              add [bx+si],al
00000DC9  0000              add [bx+si],al
00000DCB  0000              add [bx+si],al
00000DCD  0000              add [bx+si],al
00000DCF  0000              add [bx+si],al
00000DD1  0000              add [bx+si],al
00000DD3  0000              add [bx+si],al
00000DD5  0000              add [bx+si],al
00000DD7  0000              add [bx+si],al
00000DD9  0000              add [bx+si],al
00000DDB  0000              add [bx+si],al
00000DDD  0000              add [bx+si],al
00000DDF  0000              add [bx+si],al
00000DE1  0000              add [bx+si],al
00000DE3  0000              add [bx+si],al
00000DE5  0000              add [bx+si],al
00000DE7  0000              add [bx+si],al
00000DE9  0000              add [bx+si],al
00000DEB  0000              add [bx+si],al
00000DED  0000              add [bx+si],al
00000DEF  0000              add [bx+si],al
00000DF1  0000              add [bx+si],al
00000DF3  0000              add [bx+si],al
00000DF5  0000              add [bx+si],al
00000DF7  0000              add [bx+si],al
00000DF9  0000              add [bx+si],al
00000DFB  0000              add [bx+si],al
00000DFD  0000              add [bx+si],al
00000DFF  0000              add [bx+si],al
00000E01  0000              add [bx+si],al
00000E03  0000              add [bx+si],al
00000E05  0000              add [bx+si],al
00000E07  0000              add [bx+si],al
00000E09  0000              add [bx+si],al
00000E0B  0000              add [bx+si],al
00000E0D  0000              add [bx+si],al
00000E0F  0000              add [bx+si],al
00000E11  0000              add [bx+si],al
00000E13  0000              add [bx+si],al
00000E15  0000              add [bx+si],al
00000E17  0000              add [bx+si],al
00000E19  0000              add [bx+si],al
00000E1B  0000              add [bx+si],al
00000E1D  0000              add [bx+si],al
00000E1F  0000              add [bx+si],al
00000E21  0000              add [bx+si],al
00000E23  0000              add [bx+si],al
00000E25  0000              add [bx+si],al
00000E27  0000              add [bx+si],al
00000E29  0000              add [bx+si],al
00000E2B  0000              add [bx+si],al
00000E2D  0000              add [bx+si],al
00000E2F  0000              add [bx+si],al
00000E31  0000              add [bx+si],al
00000E33  0000              add [bx+si],al
00000E35  0000              add [bx+si],al
00000E37  0000              add [bx+si],al
00000E39  0000              add [bx+si],al
00000E3B  0000              add [bx+si],al
00000E3D  0000              add [bx+si],al
00000E3F  0000              add [bx+si],al
00000E41  0000              add [bx+si],al
00000E43  0000              add [bx+si],al
00000E45  0000              add [bx+si],al
00000E47  0000              add [bx+si],al
00000E49  0000              add [bx+si],al
00000E4B  0000              add [bx+si],al
00000E4D  0000              add [bx+si],al
00000E4F  0000              add [bx+si],al
00000E51  0000              add [bx+si],al
00000E53  0000              add [bx+si],al
00000E55  0000              add [bx+si],al
00000E57  0000              add [bx+si],al
00000E59  0000              add [bx+si],al
00000E5B  0000              add [bx+si],al
00000E5D  0000              add [bx+si],al
00000E5F  0000              add [bx+si],al
00000E61  0000              add [bx+si],al
00000E63  0000              add [bx+si],al
00000E65  0000              add [bx+si],al
00000E67  0000              add [bx+si],al
00000E69  0000              add [bx+si],al
00000E6B  0000              add [bx+si],al
00000E6D  0000              add [bx+si],al
00000E6F  0000              add [bx+si],al
00000E71  0000              add [bx+si],al
00000E73  0000              add [bx+si],al
00000E75  0000              add [bx+si],al
00000E77  0000              add [bx+si],al
00000E79  0000              add [bx+si],al
00000E7B  0000              add [bx+si],al
00000E7D  0000              add [bx+si],al
00000E7F  0000              add [bx+si],al
00000E81  0000              add [bx+si],al
00000E83  0000              add [bx+si],al
00000E85  0000              add [bx+si],al
00000E87  0000              add [bx+si],al
00000E89  0000              add [bx+si],al
00000E8B  0000              add [bx+si],al
00000E8D  0000              add [bx+si],al
00000E8F  0000              add [bx+si],al
00000E91  0000              add [bx+si],al
00000E93  0000              add [bx+si],al
00000E95  0000              add [bx+si],al
00000E97  0000              add [bx+si],al
00000E99  0000              add [bx+si],al
00000E9B  0000              add [bx+si],al
00000E9D  0000              add [bx+si],al
00000E9F  0000              add [bx+si],al
00000EA1  0000              add [bx+si],al
00000EA3  0000              add [bx+si],al
00000EA5  0000              add [bx+si],al
00000EA7  0000              add [bx+si],al
00000EA9  0000              add [bx+si],al
00000EAB  0000              add [bx+si],al
00000EAD  0000              add [bx+si],al
00000EAF  0000              add [bx+si],al
00000EB1  0000              add [bx+si],al
00000EB3  0000              add [bx+si],al
00000EB5  0000              add [bx+si],al
00000EB7  0000              add [bx+si],al
00000EB9  0000              add [bx+si],al
00000EBB  0000              add [bx+si],al
00000EBD  0000              add [bx+si],al
00000EBF  0000              add [bx+si],al
00000EC1  0000              add [bx+si],al
00000EC3  0000              add [bx+si],al
00000EC5  0000              add [bx+si],al
00000EC7  0000              add [bx+si],al
00000EC9  0000              add [bx+si],al
00000ECB  0000              add [bx+si],al
00000ECD  0000              add [bx+si],al
00000ECF  0000              add [bx+si],al
00000ED1  0000              add [bx+si],al
00000ED3  0000              add [bx+si],al
00000ED5  0000              add [bx+si],al
00000ED7  0000              add [bx+si],al
00000ED9  0000              add [bx+si],al
00000EDB  0000              add [bx+si],al
00000EDD  0000              add [bx+si],al
00000EDF  0000              add [bx+si],al
00000EE1  0000              add [bx+si],al
00000EE3  0000              add [bx+si],al
00000EE5  0000              add [bx+si],al
00000EE7  0000              add [bx+si],al
00000EE9  0000              add [bx+si],al
00000EEB  0000              add [bx+si],al
00000EED  0000              add [bx+si],al
00000EEF  0000              add [bx+si],al
00000EF1  0000              add [bx+si],al
00000EF3  0000              add [bx+si],al
00000EF5  0000              add [bx+si],al
00000EF7  0000              add [bx+si],al
00000EF9  0000              add [bx+si],al
00000EFB  0000              add [bx+si],al
00000EFD  0000              add [bx+si],al
00000EFF  0000              add [bx+si],al
00000F01  0000              add [bx+si],al
00000F03  0000              add [bx+si],al
00000F05  0000              add [bx+si],al
00000F07  0000              add [bx+si],al
00000F09  0000              add [bx+si],al
00000F0B  0000              add [bx+si],al
00000F0D  0000              add [bx+si],al
00000F0F  0000              add [bx+si],al
00000F11  0000              add [bx+si],al
00000F13  0000              add [bx+si],al
00000F15  0000              add [bx+si],al
00000F17  0000              add [bx+si],al
00000F19  0000              add [bx+si],al
00000F1B  0000              add [bx+si],al
00000F1D  0000              add [bx+si],al
00000F1F  0000              add [bx+si],al
00000F21  0000              add [bx+si],al
00000F23  0000              add [bx+si],al
00000F25  0000              add [bx+si],al
00000F27  0000              add [bx+si],al
00000F29  0000              add [bx+si],al
00000F2B  0000              add [bx+si],al
00000F2D  0000              add [bx+si],al
00000F2F  0000              add [bx+si],al
00000F31  0000              add [bx+si],al
00000F33  0000              add [bx+si],al
00000F35  0000              add [bx+si],al
00000F37  0000              add [bx+si],al
00000F39  0000              add [bx+si],al
00000F3B  0000              add [bx+si],al
00000F3D  0000              add [bx+si],al
00000F3F  0000              add [bx+si],al
00000F41  0000              add [bx+si],al
00000F43  0000              add [bx+si],al
00000F45  0000              add [bx+si],al
00000F47  0000              add [bx+si],al
00000F49  0000              add [bx+si],al
00000F4B  0000              add [bx+si],al
00000F4D  0000              add [bx+si],al
00000F4F  0000              add [bx+si],al
00000F51  0000              add [bx+si],al
00000F53  0000              add [bx+si],al
00000F55  0000              add [bx+si],al
00000F57  0000              add [bx+si],al
00000F59  0000              add [bx+si],al
00000F5B  0000              add [bx+si],al
00000F5D  0000              add [bx+si],al
00000F5F  0000              add [bx+si],al
00000F61  0000              add [bx+si],al
00000F63  0000              add [bx+si],al
00000F65  0000              add [bx+si],al
00000F67  0000              add [bx+si],al
00000F69  0000              add [bx+si],al
00000F6B  0000              add [bx+si],al
00000F6D  0000              add [bx+si],al
00000F6F  0000              add [bx+si],al
00000F71  0000              add [bx+si],al
00000F73  0000              add [bx+si],al
00000F75  0000              add [bx+si],al
00000F77  0000              add [bx+si],al
00000F79  0000              add [bx+si],al
00000F7B  0000              add [bx+si],al
00000F7D  0000              add [bx+si],al
00000F7F  0000              add [bx+si],al
00000F81  0000              add [bx+si],al
00000F83  0000              add [bx+si],al
00000F85  0000              add [bx+si],al
00000F87  0000              add [bx+si],al
00000F89  0000              add [bx+si],al
00000F8B  0000              add [bx+si],al
00000F8D  0000              add [bx+si],al
00000F8F  0000              add [bx+si],al
00000F91  0000              add [bx+si],al
00000F93  0000              add [bx+si],al
00000F95  0000              add [bx+si],al
00000F97  0000              add [bx+si],al
00000F99  0000              add [bx+si],al
00000F9B  0000              add [bx+si],al
00000F9D  0000              add [bx+si],al
00000F9F  0000              add [bx+si],al
00000FA1  0000              add [bx+si],al
00000FA3  0000              add [bx+si],al
00000FA5  0000              add [bx+si],al
00000FA7  0000              add [bx+si],al
00000FA9  0000              add [bx+si],al
00000FAB  0000              add [bx+si],al
00000FAD  0000              add [bx+si],al
00000FAF  0000              add [bx+si],al
00000FB1  0000              add [bx+si],al
00000FB3  0000              add [bx+si],al
00000FB5  0000              add [bx+si],al
00000FB7  0000              add [bx+si],al
00000FB9  0000              add [bx+si],al
00000FBB  0000              add [bx+si],al
00000FBD  0000              add [bx+si],al
00000FBF  0000              add [bx+si],al
00000FC1  0000              add [bx+si],al
00000FC3  0000              add [bx+si],al
00000FC5  0000              add [bx+si],al
00000FC7  0000              add [bx+si],al
00000FC9  0000              add [bx+si],al
00000FCB  0000              add [bx+si],al
00000FCD  0000              add [bx+si],al
00000FCF  0000              add [bx+si],al
00000FD1  0000              add [bx+si],al
00000FD3  0000              add [bx+si],al
00000FD5  0000              add [bx+si],al
00000FD7  0000              add [bx+si],al
00000FD9  0000              add [bx+si],al
00000FDB  0000              add [bx+si],al
00000FDD  0000              add [bx+si],al
00000FDF  0000              add [bx+si],al
00000FE1  0000              add [bx+si],al
00000FE3  0000              add [bx+si],al
00000FE5  0000              add [bx+si],al
00000FE7  0000              add [bx+si],al
00000FE9  0000              add [bx+si],al
00000FEB  0000              add [bx+si],al
00000FED  0000              add [bx+si],al
00000FEF  0000              add [bx+si],al
00000FF1  0000              add [bx+si],al
00000FF3  0000              add [bx+si],al
00000FF5  0000              add [bx+si],al
00000FF7  0000              add [bx+si],al
00000FF9  0000              add [bx+si],al
00000FFB  0000              add [bx+si],al
00000FFD  0000              add [bx+si],al
00000FFF  00F3              add bl,dh
00001001  0F1EFA            hint_nop55 dx
00001004  48                dec ax
00001005  83EC08            sub sp,byte +0x8
00001008  48                dec ax
00001009  8B05              mov ax,[di]
0000100B  C12F00            shr word [bx],byte 0x0
0000100E  004885            add [bx+si-0x7b],cl
00001011  C0                db 0xc0
00001012  7402              jz 0x1016
00001014  FFD0              call ax
00001016  48                dec ax
00001017  83C408            add sp,byte +0x8
0000101A  C3                ret
0000101B  0000              add [bx+si],al
0000101D  0000              add [bx+si],al
0000101F  00FF              add bh,bh
00001021  35CA2F            xor ax,0x2fca
00001024  0000              add [bx+si],al
00001026  FF25              jmp [di]
00001028  CC                int3
00001029  2F                das
0000102A  0000              add [bx+si],al
0000102C  0F1F4000          nop word [bx+si+0x0]
00001030  FF25              jmp [di]
00001032  CA2F00            retf 0x2f
00001035  006800            add [bx+si+0x0],ch
00001038  0000              add [bx+si],al
0000103A  00E9              add cl,ch
0000103C  E0FF              loopne 0x103d
0000103E  FF                db 0xff
0000103F  FF                db 0xff
00001040  FF25              jmp [di]
00001042  C22F00            ret 0x2f
00001045  006801            add [bx+si+0x1],ch
00001048  0000              add [bx+si],al
0000104A  00E9              add cl,ch
0000104C  D0FF              sar bh,1
0000104E  FF                db 0xff
0000104F  FF                db 0xff
00001050  FF25              jmp [di]
00001052  BA2F00            mov dx,0x2f
00001055  006802            add [bx+si+0x2],ch
00001058  0000              add [bx+si],al
0000105A  00E9              add cl,ch
0000105C  C0FFFF            sar bh,byte 0xff
0000105F  FF                db 0xff
00001060  FF25              jmp [di]
00001062  B22F              mov dl,0x2f
00001064  0000              add [bx+si],al
00001066  680300            push word 0x3
00001069  0000              add [bx+si],al
0000106B  E9B0FF            jmp 0x101e
0000106E  FF                db 0xff
0000106F  FF                db 0xff
00001070  FF25              jmp [di]
00001072  AA                stosb
00001073  2F                das
00001074  0000              add [bx+si],al
00001076  680400            push word 0x4
00001079  0000              add [bx+si],al
0000107B  E9A0FF            jmp 0x101e
0000107E  FF                db 0xff
0000107F  FF                db 0xff
00001080  FF25              jmp [di]
00001082  A22F00            mov [0x2f],al
00001085  006805            add [bx+si+0x5],ch
00001088  0000              add [bx+si],al
0000108A  00E9              add cl,ch
0000108C  90                nop
0000108D  FF                db 0xff
0000108E  FF                db 0xff
0000108F  FF                db 0xff
00001090  FF25              jmp [di]
00001092  9A2F000068        call 0x6800:0x2f
00001097  06                push es
00001098  0000              add [bx+si],al
0000109A  00E9              add cl,ch
0000109C  80FFFF            cmp bh,0xff
0000109F  FF                db 0xff
000010A0  FF25              jmp [di]
000010A2  92                xchg ax,dx
000010A3  2F                das
000010A4  0000              add [bx+si],al
000010A6  680700            push word 0x7
000010A9  0000              add [bx+si],al
000010AB  E970FF            jmp 0x101e
000010AE  FF                db 0xff
000010AF  FF                db 0xff
000010B0  FF25              jmp [di]
000010B2  8A2F              mov ch,[bx]
000010B4  0000              add [bx+si],al
000010B6  680800            push word 0x8
000010B9  0000              add [bx+si],al
000010BB  E960FF            jmp 0x101e
000010BE  FF                db 0xff
000010BF  FF                db 0xff
000010C0  FF25              jmp [di]
000010C2  82                db 0x82
000010C3  2F                das
000010C4  0000              add [bx+si],al
000010C6  680900            push word 0x9
000010C9  0000              add [bx+si],al
000010CB  E950FF            jmp 0x101e
000010CE  FF                db 0xff
000010CF  FF                db 0xff
000010D0  FF25              jmp [di]
000010D2  7A2F              jpe 0x1103
000010D4  0000              add [bx+si],al
000010D6  680A00            push word 0xa
000010D9  0000              add [bx+si],al
000010DB  E940FF            jmp 0x101e
000010DE  FF                db 0xff
000010DF  FF                db 0xff
000010E0  FF25              jmp [di]
000010E2  722F              jc 0x1113
000010E4  0000              add [bx+si],al
000010E6  680B00            push word 0xb
000010E9  0000              add [bx+si],al
000010EB  E930FF            jmp 0x101e
000010EE  FF                db 0xff
000010EF  FF                db 0xff
000010F0  FF25              jmp [di]
000010F2  6A2F              push byte +0x2f
000010F4  0000              add [bx+si],al
000010F6  680C00            push word 0xc
000010F9  0000              add [bx+si],al
000010FB  E920FF            jmp 0x101e
000010FE  FF                db 0xff
000010FF  FF                db 0xff
00001100  FF25              jmp [di]
00001102  622F              bound bp,[bx]
00001104  0000              add [bx+si],al
00001106  680D00            push word 0xd
00001109  0000              add [bx+si],al
0000110B  E910FF            jmp 0x101e
0000110E  FF                db 0xff
0000110F  FF                db 0xff
00001110  FF25              jmp [di]
00001112  5A                pop dx
00001113  2F                das
00001114  0000              add [bx+si],al
00001116  680E00            push word 0xe
00001119  0000              add [bx+si],al
0000111B  E900FF            jmp 0x101e
0000111E  FF                db 0xff
0000111F  FFF3              push bx
00001121  0F1EFA            hint_nop55 dx
00001124  31ED              xor bp,bp
00001126  49                dec cx
00001127  89D1              mov cx,dx
00001129  5E                pop si
0000112A  48                dec ax
0000112B  89E2              mov dx,sp
0000112D  48                dec ax
0000112E  83E4F0            and sp,byte -0x10
00001131  50                push ax
00001132  54                push sp
00001133  45                inc bp
00001134  31C0              xor ax,ax
00001136  31C9              xor cx,cx
00001138  48                dec ax
00001139  8D3D              lea di,[di]
0000113B  BF0C00            mov di,0xc
0000113E  00FF              add bh,bh
00001140  157B2E            adc ax,0x2e7b
00001143  0000              add [bx+si],al
00001145  F4                hlt
00001146  662E0F1F840000    nop dword [cs:si+0x0]
0000114D  0000              add [bx+si],al
0000114F  00488D            add [bx+si-0x73],cl
00001152  3D312F            cmp ax,0x2f31
00001155  0000              add [bx+si],al
00001157  48                dec ax
00001158  8D05              lea ax,[di]
0000115A  2A2F              sub ch,[bx]
0000115C  0000              add [bx+si],al
0000115E  48                dec ax
0000115F  39F8              cmp ax,di
00001161  7415              jz 0x1178
00001163  48                dec ax
00001164  8B05              mov ax,[di]
00001166  5E                pop si
00001167  2E0000            add [cs:bx+si],al
0000116A  48                dec ax
0000116B  85C0              test ax,ax
0000116D  7409              jz 0x1178
0000116F  FFE0              jmp ax
00001171  0F1F800000        nop word [bx+si+0x0]
00001176  0000              add [bx+si],al
00001178  C3                ret
00001179  0F1F800000        nop word [bx+si+0x0]
0000117E  0000              add [bx+si],al
00001180  48                dec ax
00001181  8D3D              lea di,[di]
00001183  012F              add [bx],bp
00001185  0000              add [bx+si],al
00001187  48                dec ax
00001188  8D35              lea si,[di]
0000118A  FA                cli
0000118B  2E0000            add [cs:bx+si],al
0000118E  48                dec ax
0000118F  29FE              sub si,di
00001191  48                dec ax
00001192  89F0              mov ax,si
00001194  48                dec ax
00001195  C1EE3F            shr si,byte 0x3f
00001198  48                dec ax
00001199  C1F803            sar ax,byte 0x3
0000119C  48                dec ax
0000119D  01C6              add si,ax
0000119F  48                dec ax
000011A0  D1FE              sar si,1
000011A2  7414              jz 0x11b8
000011A4  48                dec ax
000011A5  8B05              mov ax,[di]
000011A7  2D2E00            sub ax,0x2e
000011AA  004885            add [bx+si-0x7b],cl
000011AD  C0                db 0xc0
000011AE  7408              jz 0x11b8
000011B0  FFE0              jmp ax
000011B2  660F1F4400        nop dword [si+0x0]
000011B7  00C3              add bl,al
000011B9  0F1F800000        nop word [bx+si+0x0]
000011BE  0000              add [bx+si],al
000011C0  F30F1EFA          endbr64
000011C4  803DBD            cmp byte [di],0xbd
000011C7  2E0000            add [cs:bx+si],al
000011CA  007533            add [di+0x33],dh
000011CD  55                push bp
000011CE  48                dec ax
000011CF  833D0A            cmp word [di],byte +0xa
000011D2  2E0000            add [cs:bx+si],al
000011D5  004889            add [bx+si-0x77],cl
000011D8  E574              in ax,0x74
000011DA  0D488B            or ax,0x8b48
000011DD  3D9E2E            cmp ax,0x2e9e
000011E0  0000              add [bx+si],al
000011E2  FF15              call [di]
000011E4  F8                clc
000011E5  2D0000            sub ax,0x0
000011E8  E863FF            call 0x114e
000011EB  FF                db 0xff
000011EC  FFC6              inc si
000011EE  05942E            add ax,0x2e94
000011F1  0000              add [bx+si],al
000011F3  015DC3            add [di-0x3d],bx
000011F6  662E0F1F840000    nop dword [cs:si+0x0]
000011FD  0000              add [bx+si],al
000011FF  00C3              add bl,al
00001201  66662E0F1F840000  nop dword [cs:si+0x0]
00001209  0000              add [bx+si],al
0000120B  000F              add [bx],cl
0000120D  1F                pop ds
0000120E  40                inc ax
0000120F  00F3              add bl,dh
00001211  0F1EFA            hint_nop55 dx
00001214  E967FF            jmp 0x117e
00001217  FF                db 0xff
00001218  FF5548            call [di+0x48]
0000121B  89E5              mov bp,sp
0000121D  48                dec ax
0000121E  83EC30            sub sp,byte +0x30
00001221  48                dec ax
00001222  897DE8            mov [di-0x18],di
00001225  89F0              mov ax,si
00001227  8955E0            mov [di-0x20],dx
0000122A  48                dec ax
0000122B  894DD8            mov [di-0x28],cx
0000122E  8845E4            mov [di-0x1c],al
00001231  BF2800            mov di,0x28
00001234  0000              add [bx+si],al
00001236  E875FE            call 0x10ae
00001239  FF                db 0xff
0000123A  FF4889            dec word [bx+si-0x77]
0000123D  45                inc bp
0000123E  F8                clc
0000123F  48                dec ax
00001240  8B45F8            mov ax,[di-0x8]
00001243  0FB655E4          movzx dx,[di-0x1c]
00001247  885018            mov [bx+si+0x18],dl
0000124A  48                dec ax
0000124B  8B45F8            mov ax,[di-0x8]
0000124E  8B55E0            mov dx,[di-0x20]
00001251  89501C            mov [bx+si+0x1c],dx
00001254  48                dec ax
00001255  8B45F8            mov ax,[di-0x8]
00001258  48                dec ax
00001259  8B55D8            mov dx,[di-0x28]
0000125C  48                dec ax
0000125D  895020            mov [bx+si+0x20],dx
00001260  48                dec ax
00001261  8B45E8            mov ax,[di-0x18]
00001264  48                dec ax
00001265  8B5008            mov dx,[bx+si+0x8]
00001268  48                dec ax
00001269  8B45F8            mov ax,[di-0x8]
0000126C  48                dec ax
0000126D  8910              mov [bx+si],dx
0000126F  48                dec ax
00001270  8B45E8            mov ax,[di-0x18]
00001273  48                dec ax
00001274  8B5008            mov dx,[bx+si+0x8]
00001277  48                dec ax
00001278  8B45F8            mov ax,[di-0x8]
0000127B  48                dec ax
0000127C  895008            mov [bx+si+0x8],dx
0000127F  48                dec ax
00001280  8B45E8            mov ax,[di-0x18]
00001283  48                dec ax
00001284  8B5008            mov dx,[bx+si+0x8]
00001287  48                dec ax
00001288  8B45F8            mov ax,[di-0x8]
0000128B  48                dec ax
0000128C  895010            mov [bx+si+0x10],dx
0000128F  48                dec ax
00001290  8B45F8            mov ax,[di-0x8]
00001293  C9                leave
00001294  C3                ret
00001295  55                push bp
00001296  48                dec ax
00001297  89E5              mov bp,sp
00001299  48                dec ax
0000129A  83EC20            sub sp,byte +0x20
0000129D  48                dec ax
0000129E  897DE8            mov [di-0x18],di
000012A1  48                dec ax
000012A2  8975E0            mov [di-0x20],si
000012A5  BF2800            mov di,0x28
000012A8  0000              add [bx+si],al
000012AA  E801FE            call 0x10ae
000012AD  FF                db 0xff
000012AE  FF4889            dec word [bx+si-0x77]
000012B1  45                inc bp
000012B2  F8                clc
000012B3  48                dec ax
000012B4  8B45F8            mov ax,[di-0x8]
000012B7  48                dec ax
000012B8  8B55E8            mov dx,[di-0x18]
000012BB  48                dec ax
000012BC  895008            mov [bx+si+0x8],dx
000012BF  48                dec ax
000012C0  8B45F8            mov ax,[di-0x8]
000012C3  48                dec ax
000012C4  8B55E0            mov dx,[di-0x20]
000012C7  48                dec ax
000012C8  895020            mov [bx+si+0x20],dx
000012CB  48                dec ax
000012CC  8B45F8            mov ax,[di-0x8]
000012CF  48                dec ax
000012D0  8B55E8            mov dx,[di-0x18]
000012D3  48                dec ax
000012D4  8910              mov [bx+si],dx
000012D6  48                dec ax
000012D7  8B45F8            mov ax,[di-0x8]
000012DA  C740100000        mov word [bx+si+0x10],0x0
000012DF  0000              add [bx+si],al
000012E1  48                dec ax
000012E2  8B45F8            mov ax,[di-0x8]
000012E5  C740140000        mov word [bx+si+0x14],0x0
000012EA  0000              add [bx+si],al
000012EC  48                dec ax
000012ED  8B45F8            mov ax,[di-0x8]
000012F0  C740180000        mov word [bx+si+0x18],0x0
000012F5  0000              add [bx+si],al
000012F7  48                dec ax
000012F8  8B45F8            mov ax,[di-0x8]
000012FB  C9                leave
000012FC  C3                ret
000012FD  55                push bp
000012FE  48                dec ax
000012FF  89E5              mov bp,sp
00001301  48                dec ax
00001302  83EC30            sub sp,byte +0x30
00001305  48                dec ax
00001306  897DE8            mov [di-0x18],di
00001309  48                dec ax
0000130A  8975E0            mov [di-0x20],si
0000130D  48                dec ax
0000130E  8955D8            mov [di-0x28],dx
00001311  48                dec ax
00001312  8B45E0            mov ax,[di-0x20]
00001315  48                dec ax
00001316  8945F8            mov [di-0x8],ax
00001319  48                dec ax
0000131A  8B45D8            mov ax,[di-0x28]
0000131D  8B501C            mov dx,[bx+si+0x1c]
00001320  48                dec ax
00001321  8B45F8            mov ax,[di-0x8]
00001324  8B401C            mov ax,[bx+si+0x1c]
00001327  39C2              cmp dx,ax
00001329  0F9FC0            setg al
0000132C  8845F7            mov [di-0x9],al
0000132F  0FB655F7          movzx dx,[di-0x9]
00001333  48                dec ax
00001334  8B45F8            mov ax,[di-0x8]
00001337  48                dec ax
00001338  63D2              arpl dx,dx
0000133A  48                dec ax
0000133B  8B54D0            mov dx,[si-0x30]
0000133E  08488B            or [bx+si-0x75],cl
00001341  45                inc bp
00001342  E8488B            call 0x9e8d
00001345  40                inc ax
00001346  084839            or [bx+si+0x39],cl
00001349  C27549            ret 0x4975
0000134C  0FB655F7          movzx dx,[di-0x9]
00001350  48                dec ax
00001351  8B45F8            mov ax,[di-0x8]
00001354  48                dec ax
00001355  63D2              arpl dx,dx
00001357  48                dec ax
00001358  8B4DD8            mov cx,[di-0x28]
0000135B  48                dec ax
0000135C  894CD0            mov [si-0x30],cx
0000135F  08488B            or [bx+si-0x75],cl
00001362  45                inc bp
00001363  D8488B            fmul dword [bx+si-0x75]
00001366  55                push bp
00001367  F8                clc
00001368  48                dec ax
00001369  8910              mov [bx+si],dx
0000136B  48                dec ax
0000136C  8B45D8            mov ax,[di-0x28]
0000136F  C6401800          mov byte [bx+si+0x18],0x0
00001373  48                dec ax
00001374  8B45E8            mov ax,[di-0x18]
00001377  48                dec ax
00001378  8B5008            mov dx,[bx+si+0x8]
0000137B  48                dec ax
0000137C  8B45D8            mov ax,[di-0x28]
0000137F  48                dec ax
00001380  895008            mov [bx+si+0x8],dx
00001383  48                dec ax
00001384  8B45E8            mov ax,[di-0x18]
00001387  48                dec ax
00001388  8B5008            mov dx,[bx+si+0x8]
0000138B  48                dec ax
0000138C  8B45D8            mov ax,[di-0x28]
0000138F  48                dec ax
00001390  895010            mov [bx+si+0x10],dx
00001393  EB19              jmp short 0x13ae
00001395  0FB655F7          movzx dx,[di-0x9]
00001399  48                dec ax
0000139A  8B45F8            mov ax,[di-0x8]
0000139D  48                dec ax
0000139E  63D2              arpl dx,dx
000013A0  48                dec ax
000013A1  8B44D0            mov ax,[si-0x30]
000013A4  084889            or [bx+si-0x77],cl
000013A7  45                inc bp
000013A8  F8                clc
000013A9  E96BFF            jmp 0x1317
000013AC  FF                db 0xff
000013AD  FF488B            dec word [bx+si-0x75]
000013B0  55                push bp
000013B1  D8488B            fmul dword [bx+si-0x75]
000013B4  45                inc bp
000013B5  E84889            call 0x9d00
000013B8  D6                salc
000013B9  48                dec ax
000013BA  89C7              mov di,ax
000013BC  B80000            mov ax,0x0
000013BF  0000              add [bx+si],al
000013C1  E85E05            call 0x1922
000013C4  0000              add [bx+si],al
000013C6  90                nop
000013C7  C9                leave
000013C8  C3                ret
000013C9  55                push bp
000013CA  48                dec ax
000013CB  89E5              mov bp,sp
000013CD  48                dec ax
000013CE  83EC10            sub sp,byte +0x10
000013D1  48                dec ax
000013D2  897DF8            mov [di-0x8],di
000013D5  48                dec ax
000013D6  8975F0            mov [di-0x10],si
000013D9  48                dec ax
000013DA  8B45F8            mov ax,[di-0x8]
000013DD  48                dec ax
000013DE  8B10              mov dx,[bx+si]
000013E0  48                dec ax
000013E1  8B45F8            mov ax,[di-0x8]
000013E4  48                dec ax
000013E5  8B4008            mov ax,[bx+si+0x8]
000013E8  48                dec ax
000013E9  39C2              cmp dx,ax
000013EB  7553              jnz 0x1440
000013ED  48                dec ax
000013EE  8B45F8            mov ax,[di-0x8]
000013F1  48                dec ax
000013F2  8B55F0            mov dx,[di-0x10]
000013F5  48                dec ax
000013F6  8910              mov [bx+si],dx
000013F8  48                dec ax
000013F9  8B45F8            mov ax,[di-0x8]
000013FC  48                dec ax
000013FD  8B5008            mov dx,[bx+si+0x8]
00001400  48                dec ax
00001401  8B45F0            mov ax,[di-0x10]
00001404  48                dec ax
00001405  8910              mov [bx+si],dx
00001407  48                dec ax
00001408  8B45F0            mov ax,[di-0x10]
0000140B  C6401801          mov byte [bx+si+0x18],0x1
0000140F  48                dec ax
00001410  8B45F8            mov ax,[di-0x8]
00001413  48                dec ax
00001414  8B5008            mov dx,[bx+si+0x8]
00001417  48                dec ax
00001418  8B45F0            mov ax,[di-0x10]
0000141B  48                dec ax
0000141C  895008            mov [bx+si+0x8],dx
0000141F  48                dec ax
00001420  8B45F8            mov ax,[di-0x8]
00001423  48                dec ax
00001424  8B5008            mov dx,[bx+si+0x8]
00001427  48                dec ax
00001428  8B45F0            mov ax,[di-0x10]
0000142B  48                dec ax
0000142C  895010            mov [bx+si+0x10],dx
0000142F  48                dec ax
00001430  8B45F0            mov ax,[di-0x10]
00001433  48                dec ax
00001434  8D15              lea dx,[di]
00001436  CE                into
00001437  0B00              or ax,[bx+si]
00001439  004889            add [bx+si-0x77],cl
0000143C  50                push ax
0000143D  20EB              and bl,ch
0000143F  1A488B            sbb cl,[bx+si-0x75]
00001442  45                inc bp
00001443  F8                clc
00001444  48                dec ax
00001445  8B08              mov cx,[bx+si]
00001447  48                dec ax
00001448  8B55F0            mov dx,[di-0x10]
0000144B  48                dec ax
0000144C  8B45F8            mov ax,[di-0x8]
0000144F  48                dec ax
00001450  89CE              mov si,cx
00001452  48                dec ax
00001453  89C7              mov di,ax
00001455  E8A3FE            call 0x12fb
00001458  FF                db 0xff
00001459  FF488B            dec word [bx+si-0x75]
0000145C  45                inc bp
0000145D  F8                clc
0000145E  8B4018            mov ax,[bx+si+0x18]
00001461  8D5001            lea dx,[bx+si+0x1]
00001464  48                dec ax
00001465  8B45F8            mov ax,[di-0x8]
00001468  895018            mov [bx+si+0x18],dx
0000146B  90                nop
0000146C  C9                leave
0000146D  C3                ret
0000146E  55                push bp
0000146F  48                dec ax
00001470  89E5              mov bp,sp
00001472  89F8              mov ax,di
00001474  8845FC            mov [di-0x4],al
00001477  807DFC00          cmp byte [di-0x4],0x0
0000147B  7407              jz 0x1484
0000147D  B86200            mov ax,0x62
00001480  0000              add [bx+si],al
00001482  EB05              jmp short 0x1489
00001484  B87200            mov ax,0x72
00001487  0000              add [bx+si],al
00001489  5D                pop bp
0000148A  C3                ret
0000148B  55                push bp
0000148C  48                dec ax
0000148D  89E5              mov bp,sp
0000148F  48                dec ax
00001490  83EC30            sub sp,byte +0x30
00001493  48                dec ax
00001494  897DD8            mov [di-0x28],di
00001497  48                dec ax
00001498  8975D0            mov [di-0x30],si
0000149B  BF0A00            mov di,0xa
0000149E  0000              add [bx+si],al
000014A0  E88BFB            call 0x102e
000014A3  FF                db 0xff
000014A4  FF488D            dec word [bx+si-0x73]
000014A7  05610B            add ax,0xb61
000014AA  0000              add [bx+si],al
000014AC  48                dec ax
000014AD  8945E8            mov [di-0x18],ax
000014B0  BF0A00            mov di,0xa
000014B3  0000              add [bx+si],al
000014B5  E876FB            call 0x102e
000014B8  FF                db 0xff
000014B9  FF488B            dec word [bx+si-0x75]
000014BC  45                inc bp
000014BD  D00F              ror byte [bx],1
000014BF  B640              mov dh,0x40
000014C1  180F              sbb [bx],cl
000014C3  B6C0              mov dh,0xc0
000014C5  89C7              mov di,ax
000014C7  E8A2FF            call 0x146c
000014CA  FF                db 0xff
000014CB  FF0F              dec word [bx]
000014CD  BEC848            mov si,0x48c8
000014D0  8B45D0            mov ax,[di-0x30]
000014D3  8B501C            mov dx,[bx+si+0x1c]
000014D6  48                dec ax
000014D7  8B45D0            mov ax,[di-0x30]
000014DA  48                dec ax
000014DB  8B7020            mov si,[bx+si+0x20]
000014DE  48                dec ax
000014DF  8B45E8            mov ax,[di-0x18]
000014E2  48                dec ax
000014E3  89C7              mov di,ax
000014E5  B80000            mov ax,0x0
000014E8  0000              add [bx+si],al
000014EA  E881FB            call 0x106e
000014ED  FF                db 0xff
000014EE  FF488B            dec word [bx+si-0x75]
000014F1  45                inc bp
000014F2  D0488B            ror byte [bx+si-0x75],1
000014F5  50                push ax
000014F6  08488B            or [bx+si-0x75],cl
000014F9  45                inc bp
000014FA  D8488B            fmul dword [bx+si-0x75]
000014FD  40                inc ax
000014FE  084839            or [bx+si+0x39],cl
00001501  C27511            ret 0x1175
00001504  48                dec ax
00001505  8D05              lea ax,[di]
00001507  1B0B              sbb cx,[bp+di]
00001509  0000              add [bx+si],al
0000150B  48                dec ax
0000150C  89C7              mov di,ax
0000150E  E82DFB            call 0x103e
00001511  FF                db 0xff
00001512  FF                db 0xff
00001513  EB50              jmp short 0x1565
00001515  48                dec ax
00001516  8D05              lea ax,[di]
00001518  140B              adc al,0xb
0000151A  0000              add [bx+si],al
0000151C  48                dec ax
0000151D  89C7              mov di,ax
0000151F  E81CFB            call 0x103e
00001522  FF                db 0xff
00001523  FF488B            dec word [bx+si-0x75]
00001526  45                inc bp
00001527  D0488B            ror byte [bx+si-0x75],1
0000152A  40                inc ax
0000152B  084889            or [bx+si-0x77],cl
0000152E  45                inc bp
0000152F  F048              lock dec ax
00001531  8B45F0            mov ax,[di-0x10]
00001534  0FB64018          movzx ax,[bx+si+0x18]
00001538  0FB6C0            movzx ax,al
0000153B  89C7              mov di,ax
0000153D  E82CFF            call 0x146c
00001540  FF                db 0xff
00001541  FF0F              dec word [bx]
00001543  BEC848            mov si,0x48c8
00001546  8B45F0            mov ax,[di-0x10]
00001549  8B501C            mov dx,[bx+si+0x1c]
0000154C  48                dec ax
0000154D  8B45F0            mov ax,[di-0x10]
00001550  48                dec ax
00001551  8B7020            mov si,[bx+si+0x20]
00001554  48                dec ax
00001555  8B45E8            mov ax,[di-0x18]
00001558  48                dec ax
00001559  89C7              mov di,ax
0000155B  B80000            mov ax,0x0
0000155E  0000              add [bx+si],al
00001560  E80BFB            call 0x106e
00001563  FF                db 0xff
00001564  FF488B            dec word [bx+si-0x75]
00001567  45                inc bp
00001568  D0488B            ror byte [bx+si-0x75],1
0000156B  50                push ax
0000156C  10488B            adc [bx+si-0x75],cl
0000156F  45                inc bp
00001570  D8488B            fmul dword [bx+si-0x75]
00001573  40                inc ax
00001574  084839            or [bx+si+0x39],cl
00001577  C27511            ret 0x1175
0000157A  48                dec ax
0000157B  8D05              lea ax,[di]
0000157D  B50A              mov ch,0xa
0000157F  0000              add [bx+si],al
00001581  48                dec ax
00001582  89C7              mov di,ax
00001584  E8B7FA            call 0x103e
00001587  FF                db 0xff
00001588  FF                db 0xff
00001589  EB51              jmp short 0x15dc
0000158B  48                dec ax
0000158C  8D05              lea ax,[di]
0000158E  AF                scasw
0000158F  0A00              or al,[bx+si]
00001591  004889            add [bx+si-0x77],cl
00001594  C7                db 0xc7
00001595  E8A6FA            call 0x103e
00001598  FF                db 0xff
00001599  FF488B            dec word [bx+si-0x75]
0000159C  45                inc bp
0000159D  D0488B            ror byte [bx+si-0x75],1
000015A0  40                inc ax
000015A1  104889            adc [bx+si-0x77],cl
000015A4  45                inc bp
000015A5  F8                clc
000015A6  48                dec ax
000015A7  8B45F8            mov ax,[di-0x8]
000015AA  0FB64018          movzx ax,[bx+si+0x18]
000015AE  0FB6C0            movzx ax,al
000015B1  89C7              mov di,ax
000015B3  E8B6FE            call 0x146c
000015B6  FF                db 0xff
000015B7  FF0F              dec word [bx]
000015B9  BEC848            mov si,0x48c8
000015BC  8B45F8            mov ax,[di-0x8]
000015BF  8B501C            mov dx,[bx+si+0x1c]
000015C2  48                dec ax
000015C3  8B45F8            mov ax,[di-0x8]
000015C6  48                dec ax
000015C7  8B7020            mov si,[bx+si+0x20]
000015CA  48                dec ax
000015CB  8B45E8            mov ax,[di-0x18]
000015CE  48                dec ax
000015CF  89C7              mov di,ax
000015D1  B80000            mov ax,0x0
000015D4  0000              add [bx+si],al
000015D6  E895FA            call 0x106e
000015D9  FF                db 0xff
000015DA  FF90C9C3          call [bx+si-0x3c37]
000015DE  55                push bp
000015DF  48                dec ax
000015E0  89E5              mov bp,sp
000015E2  48                dec ax
000015E3  83EC30            sub sp,byte +0x30
000015E6  48                dec ax
000015E7  897DE8            mov [di-0x18],di
000015EA  48                dec ax
000015EB  8975E0            mov [di-0x20],si
000015EE  89D0              mov ax,dx
000015F0  8845DC            mov [di-0x24],al
000015F3  48                dec ax
000015F4  8B45E8            mov ax,[di-0x18]
000015F7  48                dec ax
000015F8  8B4008            mov ax,[bx+si+0x8]
000015FB  48                dec ax
000015FC  3945E0            cmp [di-0x20],ax
000015FF  7519              jnz 0x161a
00001601  48                dec ax
00001602  8D05              lea ax,[di]
00001604  40                inc ax
00001605  0A00              or al,[bx+si]
00001607  004889            add [bx+si-0x77],cl
0000160A  C7                db 0xc7
0000160B  E830FA            call 0x103e
0000160E  FF                db 0xff
0000160F  FF                db 0xff
00001610  BF0100            mov di,0x1
00001613  0000              add [bx+si],al
00001615  E8D6FA            call 0x10ee
00001618  FF                db 0xff
00001619  FF0F              dec word [bx]
0000161B  B645              mov dh,0x45
0000161D  DC83F001          fadd qword [bp+di+0x1f0]
00001621  0FB6D0            movzx dx,al
00001624  48                dec ax
00001625  8B45E0            mov ax,[di-0x20]
00001628  48                dec ax
00001629  63D2              arpl dx,dx
0000162B  48                dec ax
0000162C  8B44D0            mov ax,[si-0x30]
0000162F  084889            or [bx+si-0x77],cl
00001632  45                inc bp
00001633  F8                clc
00001634  48                dec ax
00001635  8B45E8            mov ax,[di-0x18]
00001638  48                dec ax
00001639  8B4008            mov ax,[bx+si+0x8]
0000163C  48                dec ax
0000163D  3945F8            cmp [di-0x8],ax
00001640  7519              jnz 0x165b
00001642  48                dec ax
00001643  8D05              lea ax,[di]
00001645  FF09              dec word [bx+di]
00001647  0000              add [bx+si],al
00001649  48                dec ax
0000164A  89C7              mov di,ax
0000164C  E8EFF9            call 0x103e
0000164F  FF                db 0xff
00001650  FF                db 0xff
00001651  BF0100            mov di,0x1
00001654  0000              add [bx+si],al
00001656  E895FA            call 0x10ee
00001659  FF                db 0xff
0000165A  FF488B            dec word [bx+si-0x75]
0000165D  45                inc bp
0000165E  E048              loopne 0x16a8
00001660  8B10              mov dx,[bx+si]
00001662  48                dec ax
00001663  8B45F8            mov ax,[di-0x8]
00001666  48                dec ax
00001667  8910              mov [bx+si],dx
00001669  48                dec ax
0000166A  8B45E8            mov ax,[di-0x18]
0000166D  48                dec ax
0000166E  8B4008            mov ax,[bx+si+0x8]
00001671  48                dec ax
00001672  3945F8            cmp [di-0x8],ax
00001675  7519              jnz 0x1690
00001677  48                dec ax
00001678  8D05              lea ax,[di]
0000167A  D809              fmul dword [bx+di]
0000167C  0000              add [bx+si],al
0000167E  48                dec ax
0000167F  89C7              mov di,ax
00001681  E8BAF9            call 0x103e
00001684  FF                db 0xff
00001685  FF                db 0xff
00001686  BF0100            mov di,0x1
00001689  0000              add [bx+si],al
0000168B  E860FA            call 0x10ee
0000168E  FF                db 0xff
0000168F  FF488B            dec word [bx+si-0x75]
00001692  45                inc bp
00001693  E048              loopne 0x16dd
00001695  8B10              mov dx,[bx+si]
00001697  48                dec ax
00001698  8B45E8            mov ax,[di-0x18]
0000169B  48                dec ax
0000169C  8B4008            mov ax,[bx+si+0x8]
0000169F  48                dec ax
000016A0  39C2              cmp dx,ax
000016A2  7428              jz 0x16cc
000016A4  48                dec ax
000016A5  8B45E0            mov ax,[di-0x20]
000016A8  48                dec ax
000016A9  8B00              mov ax,[bx+si]
000016AB  48                dec ax
000016AC  8B55E0            mov dx,[di-0x20]
000016AF  48                dec ax
000016B0  8B12              mov dx,[bp+si]
000016B2  48                dec ax
000016B3  8B5210            mov dx,[bp+si+0x10]
000016B6  48                dec ax
000016B7  3955E0            cmp [di-0x20],dx
000016BA  0F94C2            setz dl
000016BD  0FB6D2            movzx dx,dl
000016C0  48                dec ax
000016C1  63D2              arpl dx,dx
000016C3  48                dec ax
000016C4  8B4DF8            mov cx,[di-0x8]
000016C7  48                dec ax
000016C8  894CD0            mov [si-0x30],cx
000016CB  08488B            or [bx+si-0x75],cl
000016CE  45                inc bp
000016CF  E048              loopne 0x1719
000016D1  8B55F8            mov dx,[di-0x8]
000016D4  48                dec ax
000016D5  8910              mov [bx+si],dx
000016D7  0FB655DC          movzx dx,[di-0x24]
000016DB  0FB645DC          movzx ax,[di-0x24]
000016DF  83F001            xor ax,byte +0x1
000016E2  0FB6F0            movzx si,al
000016E5  48                dec ax
000016E6  8B45F8            mov ax,[di-0x8]
000016E9  48                dec ax
000016EA  63D2              arpl dx,dx
000016EC  48                dec ax
000016ED  8B4CD0            mov cx,[si-0x30]
000016F0  08488B            or [bx+si-0x75],cl
000016F3  45                inc bp
000016F4  E048              loopne 0x173e
000016F6  63D6              arpl si,dx
000016F8  48                dec ax
000016F9  894CD0            mov [si-0x30],cx
000016FC  080F              or [bx],cl
000016FE  B655              mov dh,0x55
00001700  DC488B            fmul qword [bx+si-0x75]
00001703  45                inc bp
00001704  F8                clc
00001705  48                dec ax
00001706  63D2              arpl dx,dx
00001708  48                dec ax
00001709  8B54D0            mov dx,[si-0x30]
0000170C  08488B            or [bx+si-0x75],cl
0000170F  45                inc bp
00001710  E8488B            call 0xa25b
00001713  40                inc ax
00001714  084839            or [bx+si+0x39],cl
00001717  C27417            ret 0x1774
0000171A  0FB655DC          movzx dx,[di-0x24]
0000171E  48                dec ax
0000171F  8B45F8            mov ax,[di-0x8]
00001722  48                dec ax
00001723  63D2              arpl dx,dx
00001725  48                dec ax
00001726  8B44D0            mov ax,[si-0x30]
00001729  08488B            or [bx+si-0x75],cl
0000172C  55                push bp
0000172D  E048              loopne 0x1777
0000172F  8910              mov [bx+si],dx
00001731  0FB655DC          movzx dx,[di-0x24]
00001735  48                dec ax
00001736  8B45F8            mov ax,[di-0x8]
00001739  48                dec ax
0000173A  63D2              arpl dx,dx
0000173C  48                dec ax
0000173D  8B4DE0            mov cx,[di-0x20]
00001740  48                dec ax
00001741  894CD0            mov [si-0x30],cx
00001744  0890C9C3          or [bx+si-0x3c37],dl
00001748  55                push bp
00001749  48                dec ax
0000174A  89E5              mov bp,sp
0000174C  48                dec ax
0000174D  83EC30            sub sp,byte +0x30
00001750  48                dec ax
00001751  897DD8            mov [di-0x28],di
00001754  48                dec ax
00001755  8975D0            mov [di-0x30],si
00001758  6448              fs dec ax
0000175A  8B04              mov ax,[si]
0000175C  252800            and ax,0x28
0000175F  0000              add [bx+si],al
00001761  48                dec ax
00001762  8945F8            mov [di-0x8],ax
00001765  31C0              xor ax,ax
00001767  48                dec ax
00001768  8B45D0            mov ax,[di-0x30]
0000176B  48                dec ax
0000176C  8945F0            mov [di-0x10],ax
0000176F  E94301            jmp 0x18b5
00001772  0000              add [bx+si],al
00001774  48                dec ax
00001775  8B55F0            mov dx,[di-0x10]
00001778  48                dec ax
00001779  8B45D8            mov ax,[di-0x28]
0000177C  48                dec ax
0000177D  89D6              mov si,dx
0000177F  48                dec ax
00001780  89C7              mov di,ax
00001782  E804FD            call 0x1489
00001785  FF                db 0xff
00001786  FF488D            dec word [bx+si-0x73]
00001789  05D808            add ax,0x8d8
0000178C  0000              add [bx+si],al
0000178E  48                dec ax
0000178F  89C7              mov di,ax
00001791  B80000            mov ax,0x0
00001794  0000              add [bx+si],al
00001796  E8D5F8            call 0x106e
00001799  FF                db 0xff
0000179A  FF488D            dec word [bx+si-0x73]
0000179D  45                inc bp
0000179E  EF                out dx,ax
0000179F  48                dec ax
000017A0  89C6              mov si,ax
000017A2  48                dec ax
000017A3  8D05              lea ax,[di]
000017A5  C10800            ror word [bx+si],byte 0x0
000017A8  004889            add [bx+si-0x77],cl
000017AB  C7                db 0xc7
000017AC  B80000            mov ax,0x0
000017AF  0000              add [bx+si],al
000017B1  E81AF9            call 0x10ce
000017B4  FF                db 0xff
000017B5  FF0F              dec word [bx]
000017B7  B645              mov dh,0x45
000017B9  EF                out dx,ax
000017BA  0FBEC0            movsx ax,al
000017BD  83E84C            sub ax,byte +0x4c
000017C0  83F828            cmp ax,byte +0x28
000017C3  0F87DE00          ja near 0x18a5
000017C7  0000              add [bx+si],al
000017C9  89C0              mov ax,ax
000017CB  48                dec ax
000017CC  8D14              lea dx,[si]
000017CE  8500              test [bx+si],ax
000017D0  0000              add [bx+si],al
000017D2  00488D            add [bx+si-0x73],cl
000017D5  05CA08            add ax,0x8ca
000017D8  0000              add [bx+si],al
000017DA  8B04              mov ax,[si]
000017DC  024898            add cl,[bx+si-0x68]
000017DF  48                dec ax
000017E0  8D15              lea dx,[di]
000017E2  BE0800            mov si,0x8
000017E5  004801            add [bx+si+0x1],cl
000017E8  D0FF              sar bh,1
000017EA  E048              loopne 0x1834
000017EC  8B45F0            mov ax,[di-0x10]
000017EF  48                dec ax
000017F0  8B00              mov ax,[bx+si]
000017F2  48                dec ax
000017F3  8945F0            mov [di-0x10],ax
000017F6  E9BC00            jmp 0x18b5
000017F9  0000              add [bx+si],al
000017FB  48                dec ax
000017FC  8B45F0            mov ax,[di-0x10]
000017FF  48                dec ax
00001800  8B5008            mov dx,[bx+si+0x8]
00001803  48                dec ax
00001804  8B45D8            mov ax,[di-0x28]
00001807  48                dec ax
00001808  8B4008            mov ax,[bx+si+0x8]
0000180B  48                dec ax
0000180C  39C2              cmp dx,ax
0000180E  7514              jnz 0x1824
00001810  48                dec ax
00001811  8D05              lea ax,[di]
00001813  57                push di
00001814  0800              or [bx+si],al
00001816  004889            add [bx+si-0x77],cl
00001819  C7                db 0xc7
0000181A  E821F8            call 0x103e
0000181D  FF                db 0xff
0000181E  FF                db 0xff
0000181F  E99300            jmp 0x18b5
00001822  0000              add [bx+si],al
00001824  48                dec ax
00001825  8B45F0            mov ax,[di-0x10]
00001828  48                dec ax
00001829  8B4008            mov ax,[bx+si+0x8]
0000182C  48                dec ax
0000182D  8945F0            mov [di-0x10],ax
00001830  E98200            jmp 0x18b5
00001833  0000              add [bx+si],al
00001835  48                dec ax
00001836  8B45F0            mov ax,[di-0x10]
00001839  48                dec ax
0000183A  8B5010            mov dx,[bx+si+0x10]
0000183D  48                dec ax
0000183E  8B45D8            mov ax,[di-0x28]
00001841  48                dec ax
00001842  8B4008            mov ax,[bx+si+0x8]
00001845  48                dec ax
00001846  39C2              cmp dx,ax
00001848  7511              jnz 0x185b
0000184A  48                dec ax
0000184B  8D05              lea ax,[di]
0000184D  1D0800            sbb ax,0x8
00001850  004889            add [bx+si-0x77],cl
00001853  C7                db 0xc7
00001854  E8E7F7            call 0x103e
00001857  FF                db 0xff
00001858  FF                db 0xff
00001859  EB5C              jmp short 0x18b7
0000185B  48                dec ax
0000185C  8B45F0            mov ax,[di-0x10]
0000185F  48                dec ax
00001860  8B4010            mov ax,[bx+si+0x10]
00001863  48                dec ax
00001864  8945F0            mov [di-0x10],ax
00001867  EB4E              jmp short 0x18b7
00001869  48                dec ax
0000186A  8B4DF0            mov cx,[di-0x10]
0000186D  48                dec ax
0000186E  8B45D8            mov ax,[di-0x28]
00001871  BA0000            mov dx,0x0
00001874  0000              add [bx+si],al
00001876  48                dec ax
00001877  89CE              mov si,cx
00001879  48                dec ax
0000187A  89C7              mov di,ax
0000187C  E85DFD            call 0x15dc
0000187F  FF                db 0xff
00001880  FF                db 0xff
00001881  EB34              jmp short 0x18b7
00001883  48                dec ax
00001884  8B4DF0            mov cx,[di-0x10]
00001887  48                dec ax
00001888  8B45D8            mov ax,[di-0x28]
0000188B  BA0100            mov dx,0x1
0000188E  0000              add [bx+si],al
00001890  48                dec ax
00001891  89CE              mov si,cx
00001893  48                dec ax
00001894  89C7              mov di,ax
00001896  E843FD            call 0x15dc
00001899  FF                db 0xff
0000189A  FF                db 0xff
0000189B  EB1A              jmp short 0x18b7
0000189D  48                dec ax
0000189E  8B45D0            mov ax,[di-0x30]
000018A1  48                dec ax
000018A2  8945F0            mov [di-0x10],ax
000018A5  EB10              jmp short 0x18b7
000018A7  48                dec ax
000018A8  8D05              lea ax,[di]
000018AA  D207              rol byte [bx],cl
000018AC  0000              add [bx+si],al
000018AE  48                dec ax
000018AF  89C7              mov di,ax
000018B1  E88AF7            call 0x103e
000018B4  FF                db 0xff
000018B5  FF90488B          call [bx+si-0x74b8]
000018B9  45                inc bp
000018BA  D8488B            fmul dword [bx+si-0x75]
000018BD  40                inc ax
000018BE  084839            or [bx+si+0x39],cl
000018C1  45                inc bp
000018C2  F00F85ABFE        lock jnz near 0x1772
000018C7  FF                db 0xff
000018C8  FF                db 0xff
000018C9  EB01              jmp short 0x18cc
000018CB  90                nop
000018CC  48                dec ax
000018CD  8B45F8            mov ax,[di-0x8]
000018D0  6448              fs dec ax
000018D2  2B04              sub ax,[si]
000018D4  252800            and ax,0x28
000018D7  0000              add [bx+si],al
000018D9  7405              jz 0x18e0
000018DB  E880F7            call 0x105e
000018DE  FF                db 0xff
000018DF  FFC9              dec cx
000018E1  C3                ret
000018E2  55                push bp
000018E3  48                dec ax
000018E4  89E5              mov bp,sp
000018E6  48                dec ax
000018E7  897DF8            mov [di-0x8],di
000018EA  48                dec ax
000018EB  8B45F8            mov ax,[di-0x8]
000018EE  48                dec ax
000018EF  8B00              mov ax,[bx+si]
000018F1  48                dec ax
000018F2  8B4010            mov ax,[bx+si+0x10]
000018F5  48                dec ax
000018F6  3945F8            cmp [di-0x8],ax
000018F9  0F94C0            setz al
000018FC  5D                pop bp
000018FD  C3                ret
000018FE  55                push bp
000018FF  48                dec ax
00001900  89E5              mov bp,sp
00001902  48                dec ax
00001903  897DF8            mov [di-0x8],di
00001906  48                dec ax
00001907  8B45F8            mov ax,[di-0x8]
0000190A  C6401800          mov byte [bx+si+0x18],0x0
0000190E  90                nop
0000190F  5D                pop bp
00001910  C3                ret
00001911  55                push bp
00001912  48                dec ax
00001913  89E5              mov bp,sp
00001915  48                dec ax
00001916  897DF8            mov [di-0x8],di
00001919  48                dec ax
0000191A  8B45F8            mov ax,[di-0x8]
0000191D  C6401801          mov byte [bx+si+0x18],0x1
00001921  90                nop
00001922  5D                pop bp
00001923  C3                ret
00001924  55                push bp
00001925  48                dec ax
00001926  89E5              mov bp,sp
00001928  48                dec ax
00001929  83EC40            sub sp,byte +0x40
0000192C  48                dec ax
0000192D  897DC8            mov [di-0x38],di
00001930  48                dec ax
00001931  8975C0            mov [di-0x40],si
00001934  48                dec ax
00001935  8B45C0            mov ax,[di-0x40]
00001938  48                dec ax
00001939  8945E0            mov [di-0x20],ax
0000193C  E93901            jmp 0x1a78
0000193F  0000              add [bx+si],al
00001941  48                dec ax
00001942  8B45E0            mov ax,[di-0x20]
00001945  48                dec ax
00001946  8B00              mov ax,[bx+si]
00001948  48                dec ax
00001949  89C7              mov di,ax
0000194B  E892FF            call 0x18e0
0000194E  FF                db 0xff
0000194F  FF8845DF          dec word [bx+si-0x20bb]
00001953  48                dec ax
00001954  8B45E0            mov ax,[di-0x20]
00001957  48                dec ax
00001958  8B00              mov ax,[bx+si]
0000195A  48                dec ax
0000195B  8945E8            mov [di-0x18],ax
0000195E  48                dec ax
0000195F  8B45E0            mov ax,[di-0x20]
00001962  48                dec ax
00001963  8B00              mov ax,[bx+si]
00001965  48                dec ax
00001966  8B00              mov ax,[bx+si]
00001968  48                dec ax
00001969  8945F0            mov [di-0x10],ax
0000196C  48                dec ax
0000196D  8B45E0            mov ax,[di-0x20]
00001970  48                dec ax
00001971  8B00              mov ax,[bx+si]
00001973  48                dec ax
00001974  8B00              mov ax,[bx+si]
00001976  0FB655DF          movzx dx,[di-0x21]
0000197A  83F201            xor dx,byte +0x1
0000197D  0FB6D2            movzx dx,dl
00001980  48                dec ax
00001981  63D2              arpl dx,dx
00001983  48                dec ax
00001984  8B44D0            mov ax,[si-0x30]
00001987  084889            or [bx+si-0x77],cl
0000198A  45                inc bp
0000198B  F8                clc
0000198C  48                dec ax
0000198D  8B45F8            mov ax,[di-0x8]
00001990  0FB64018          movzx ax,[bx+si+0x18]
00001994  83F001            xor ax,byte +0x1
00001997  84C0              test al,al
00001999  7431              jz 0x19cc
0000199B  48                dec ax
0000199C  8B45F8            mov ax,[di-0x8]
0000199F  48                dec ax
000019A0  89C7              mov di,ax
000019A2  E86AFF            call 0x190f
000019A5  FF                db 0xff
000019A6  FF488B            dec word [bx+si-0x75]
000019A9  45                inc bp
000019AA  E84889            call 0xa2f5
000019AD  C7                db 0xc7
000019AE  E85EFF            call 0x190f
000019B1  FF                db 0xff
000019B2  FF488B            dec word [bx+si-0x75]
000019B5  45                inc bp
000019B6  F048              lock dec ax
000019B8  89C7              mov di,ax
000019BA  E83FFF            call 0x18fc
000019BD  FF                db 0xff
000019BE  FF488B            dec word [bx+si-0x75]
000019C1  45                inc bp
000019C2  F048              lock dec ax
000019C4  8945E0            mov [di-0x20],ax
000019C7  E9AE00            jmp 0x1a78
000019CA  0000              add [bx+si],al
000019CC  90                nop
000019CD  48                dec ax
000019CE  8B45E0            mov ax,[di-0x20]
000019D1  48                dec ax
000019D2  89C7              mov di,ax
000019D4  E809FF            call 0x18e0
000019D7  FF                db 0xff
000019D8  FF                db 0xff
000019D9  3845DF            cmp [di-0x21],al
000019DC  7459              jz 0x1a37
000019DE  0FB655DF          movzx dx,[di-0x21]
000019E2  48                dec ax
000019E3  8B4DE8            mov cx,[di-0x18]
000019E6  48                dec ax
000019E7  8B45C8            mov ax,[di-0x38]
000019EA  48                dec ax
000019EB  89CE              mov si,cx
000019ED  48                dec ax
000019EE  89C7              mov di,ax
000019F0  E8E9FB            call 0x15dc
000019F3  FF                db 0xff
000019F4  FF0F              dec word [bx]
000019F6  B645              mov dh,0x45
000019F8  DF85C00F          fild word [di+0xfc0]
000019FC  95                xchg ax,bp
000019FD  C083F0010F        rol byte [bp+di+0x1f0],byte 0xf
00001A02  B6C0              mov dh,0xc0
00001A04  83E001            and ax,byte +0x1
00001A07  0FB6D0            movzx dx,al
00001A0A  48                dec ax
00001A0B  8B4DF0            mov cx,[di-0x10]
00001A0E  48                dec ax
00001A0F  8B45C8            mov ax,[di-0x38]
00001A12  48                dec ax
00001A13  89CE              mov si,cx
00001A15  48                dec ax
00001A16  89C7              mov di,ax
00001A18  E8C1FB            call 0x15dc
00001A1B  FF                db 0xff
00001A1C  FF488B            dec word [bx+si-0x75]
00001A1F  45                inc bp
00001A20  E048              loopne 0x1a6a
00001A22  89C7              mov di,ax
00001A24  E8E8FE            call 0x190f
00001A27  FF                db 0xff
00001A28  FF488B            dec word [bx+si-0x75]
00001A2B  45                inc bp
00001A2C  F048              lock dec ax
00001A2E  89C7              mov di,ax
00001A30  E8C9FE            call 0x18fc
00001A33  FF                db 0xff
00001A34  FF                db 0xff
00001A35  EB59              jmp short 0x1a90
00001A37  90                nop
00001A38  0FB645DF          movzx ax,[di-0x21]
00001A3C  85C0              test ax,ax
00001A3E  0F95C0            setnz al
00001A41  83F001            xor ax,byte +0x1
00001A44  0FB6C0            movzx ax,al
00001A47  83E001            and ax,byte +0x1
00001A4A  0FB6D0            movzx dx,al
00001A4D  48                dec ax
00001A4E  8B4DF0            mov cx,[di-0x10]
00001A51  48                dec ax
00001A52  8B45C8            mov ax,[di-0x38]
00001A55  48                dec ax
00001A56  89CE              mov si,cx
00001A58  48                dec ax
00001A59  89C7              mov di,ax
00001A5B  E87EFB            call 0x15dc
00001A5E  FF                db 0xff
00001A5F  FF488B            dec word [bx+si-0x75]
00001A62  45                inc bp
00001A63  E84889            call 0xa3ae
00001A66  C7                db 0xc7
00001A67  E8A5FE            call 0x190f
00001A6A  FF                db 0xff
00001A6B  FF488B            dec word [bx+si-0x75]
00001A6E  45                inc bp
00001A6F  F048              lock dec ax
00001A71  89C7              mov di,ax
00001A73  E886FE            call 0x18fc
00001A76  FF                db 0xff
00001A77  FF                db 0xff
00001A78  EB16              jmp short 0x1a90
00001A7A  48                dec ax
00001A7B  8B45E0            mov ax,[di-0x20]
00001A7E  48                dec ax
00001A7F  8B00              mov ax,[bx+si]
00001A81  0FB64018          movzx ax,[bx+si+0x18]
00001A85  83F001            xor ax,byte +0x1
00001A88  84C0              test al,al
00001A8A  0F85B1FE          jnz near 0x193f
00001A8E  FF                db 0xff
00001A8F  FF488B            dec word [bx+si-0x75]
00001A92  45                inc bp
00001A93  C8488B00          enter 0x8b48,0x0
00001A97  48                dec ax
00001A98  8B10              mov dx,[bx+si]
00001A9A  48                dec ax
00001A9B  8B45C8            mov ax,[di-0x38]
00001A9E  48                dec ax
00001A9F  8B4008            mov ax,[bx+si+0x8]
00001AA2  48                dec ax
00001AA3  39C2              cmp dx,ax
00001AA5  7411              jz 0x1ab8
00001AA7  48                dec ax
00001AA8  8B45C8            mov ax,[di-0x38]
00001AAB  48                dec ax
00001AAC  8B00              mov ax,[bx+si]
00001AAE  48                dec ax
00001AAF  8B10              mov dx,[bx+si]
00001AB1  48                dec ax
00001AB2  8B45C8            mov ax,[di-0x38]
00001AB5  48                dec ax
00001AB6  8910              mov [bx+si],dx
00001AB8  48                dec ax
00001AB9  8B45C8            mov ax,[di-0x38]
00001ABC  48                dec ax
00001ABD  8B00              mov ax,[bx+si]
00001ABF  48                dec ax
00001AC0  89C7              mov di,ax
00001AC2  E84AFE            call 0x190f
00001AC5  FF                db 0xff
00001AC6  FF90C9C3          call [bx+si-0x3c37]
00001ACA  55                push bp
00001ACB  48                dec ax
00001ACC  89E5              mov bp,sp
00001ACE  48                dec ax
00001ACF  83EC30            sub sp,byte +0x30
00001AD2  48                dec ax
00001AD3  897DE8            mov [di-0x18],di
00001AD6  48                dec ax
00001AD7  8975E0            mov [di-0x20],si
00001ADA  48                dec ax
00001ADB  8955D8            mov [di-0x28],dx
00001ADE  48                dec ax
00001ADF  8B45E8            mov ax,[di-0x18]
00001AE2  48                dec ax
00001AE3  8B4008            mov ax,[bx+si+0x8]
00001AE6  48                dec ax
00001AE7  3945E0            cmp [di-0x20],ax
00001AEA  750A              jnz 0x1af6
00001AEC  B80100            mov ax,0x1
00001AEF  0000              add [bx+si],al
00001AF1  E9B900            jmp 0x1bad
00001AF4  0000              add [bx+si],al
00001AF6  48                dec ax
00001AF7  8B45D8            mov ax,[di-0x28]
00001AFA  8B00              mov ax,[bx+si]
00001AFC  8D5001            lea dx,[bx+si+0x1]
00001AFF  48                dec ax
00001B00  8B45D8            mov ax,[di-0x28]
00001B03  8910              mov [bx+si],dx
00001B05  48                dec ax
00001B06  8B45E0            mov ax,[di-0x20]
00001B09  48                dec ax
00001B0A  8B4808            mov cx,[bx+si+0x8]
00001B0D  48                dec ax
00001B0E  8B55D8            mov dx,[di-0x28]
00001B11  48                dec ax
00001B12  8B45E8            mov ax,[di-0x18]
00001B15  48                dec ax
00001B16  89CE              mov si,cx
00001B18  48                dec ax
00001B19  89C7              mov di,ax
00001B1B  E8AAFF            call 0x1ac8
00001B1E  FF                db 0xff
00001B1F  FF8945F8          dec word [bx+di-0x7bb]
00001B23  48                dec ax
00001B24  8B45E0            mov ax,[di-0x20]
00001B27  48                dec ax
00001B28  8B4810            mov cx,[bx+si+0x10]
00001B2B  48                dec ax
00001B2C  8B55D8            mov dx,[di-0x28]
00001B2F  48                dec ax
00001B30  8B45E8            mov ax,[di-0x18]
00001B33  48                dec ax
00001B34  89CE              mov si,cx
00001B36  48                dec ax
00001B37  89C7              mov di,ax
00001B39  E88CFF            call 0x1ac8
00001B3C  FF                db 0xff
00001B3D  FF8945FC          dec word [bx+di-0x3bb]
00001B41  8B45FC            mov ax,[di-0x4]
00001B44  3B45F8            cmp ax,[di-0x8]
00001B47  741D              jz 0x1b66
00001B49  48                dec ax
00001B4A  8B45E0            mov ax,[di-0x20]
00001B4D  8B401C            mov ax,[bx+si+0x1c]
00001B50  89C6              mov si,ax
00001B52  48                dec ax
00001B53  8D05              lea ax,[di]
00001B55  EF                out dx,ax
00001B56  050000            add ax,0x0
00001B59  48                dec ax
00001B5A  89C7              mov di,ax
00001B5C  B80000            mov ax,0x0
00001B5F  0000              add [bx+si],al
00001B61  E80AF5            call 0x106e
00001B64  FF                db 0xff
00001B65  FF488B            dec word [bx+si-0x75]
00001B68  45                inc bp
00001B69  E00F              loopne 0x1b7a
00001B6B  B640              mov dh,0x40
00001B6D  1883F001          sbb [bp+di+0x1f0],al
00001B71  84C0              test al,al
00001B73  7434              jz 0x1ba9
00001B75  48                dec ax
00001B76  8B45E0            mov ax,[di-0x20]
00001B79  48                dec ax
00001B7A  8B00              mov ax,[bx+si]
00001B7C  0FB64018          movzx ax,[bx+si+0x18]
00001B80  83F001            xor ax,byte +0x1
00001B83  84C0              test al,al
00001B85  741D              jz 0x1ba4
00001B87  48                dec ax
00001B88  8B45E0            mov ax,[di-0x20]
00001B8B  8B401C            mov ax,[bx+si+0x1c]
00001B8E  89C6              mov si,ax
00001B90  48                dec ax
00001B91  8D05              lea ax,[di]
00001B93  CB                retf
00001B94  050000            add ax,0x0
00001B97  48                dec ax
00001B98  89C7              mov di,ax
00001B9A  B80000            mov ax,0x0
00001B9D  0000              add [bx+si],al
00001B9F  E8CCF4            call 0x106e
00001BA2  FF                db 0xff
00001BA3  FF8B45F8          dec word [bp+di-0x7bb]
00001BA7  EB06              jmp short 0x1baf
00001BA9  8B45F8            mov ax,[di-0x8]
00001BAC  83C001            add ax,byte +0x1
00001BAF  C9                leave
00001BB0  C3                ret
00001BB1  55                push bp
00001BB2  48                dec ax
00001BB3  89E5              mov bp,sp
00001BB5  48                dec ax
00001BB6  83EC20            sub sp,byte +0x20
00001BB9  48                dec ax
00001BBA  897DE8            mov [di-0x18],di
00001BBD  6448              fs dec ax
00001BBF  8B04              mov ax,[si]
00001BC1  252800            and ax,0x28
00001BC4  0000              add [bx+si],al
00001BC6  48                dec ax
00001BC7  8945F8            mov [di-0x8],ax
00001BCA  31C0              xor ax,ax
00001BCC  C745F00000        mov word [di-0x10],0x0
00001BD1  0000              add [bx+si],al
00001BD3  48                dec ax
00001BD4  8B45E8            mov ax,[di-0x18]
00001BD7  48                dec ax
00001BD8  8B08              mov cx,[bx+si]
00001BDA  48                dec ax
00001BDB  8D55F0            lea dx,[di-0x10]
00001BDE  48                dec ax
00001BDF  8B45E8            mov ax,[di-0x18]
00001BE2  48                dec ax
00001BE3  89CE              mov si,cx
00001BE5  48                dec ax
00001BE6  89C7              mov di,ax
00001BE8  E8DDFE            call 0x1ac8
00001BEB  FF                db 0xff
00001BEC  FF8945F4          dec word [bx+di-0xbbb]
00001BF0  48                dec ax
00001BF1  8B45E8            mov ax,[di-0x18]
00001BF4  8B5018            mov dx,[bx+si+0x18]
00001BF7  8B45F0            mov ax,[di-0x10]
00001BFA  39C2              cmp dx,ax
00001BFC  740F              jz 0x1c0d
00001BFE  48                dec ax
00001BFF  8D05              lea ax,[di]
00001C01  7B05              jpo 0x1c08
00001C03  0000              add [bx+si],al
00001C05  48                dec ax
00001C06  89C7              mov di,ax
00001C08  E833F4            call 0x103e
00001C0B  FF                db 0xff
00001C0C  FF8B55F0          dec word [bp+di-0xfab]
00001C10  48                dec ax
00001C11  8B45E8            mov ax,[di-0x18]
00001C14  8B4018            mov ax,[bx+si+0x18]
00001C17  89C6              mov si,ax
00001C19  48                dec ax
00001C1A  8D05              lea ax,[di]
00001C1C  98                cbw
00001C1D  050000            add ax,0x0
00001C20  48                dec ax
00001C21  89C7              mov di,ax
00001C23  B80000            mov ax,0x0
00001C26  0000              add [bx+si],al
00001C28  E843F4            call 0x106e
00001C2B  FF                db 0xff
00001C2C  FF8B45F4          dec word [bp+di-0xbbb]
00001C30  89C6              mov si,ax
00001C32  48                dec ax
00001C33  8D05              lea ax,[di]
00001C35  A90500            test ax,0x5
00001C38  004889            add [bx+si-0x77],cl
00001C3B  C7                db 0xc7
00001C3C  B80000            mov ax,0x0
00001C3F  0000              add [bx+si],al
00001C41  E82AF4            call 0x106e
00001C44  FF                db 0xff
00001C45  FF90488B          call [bx+si-0x74b8]
00001C49  55                push bp
00001C4A  F8                clc
00001C4B  6448              fs dec ax
00001C4D  2B14              sub dx,[si]
00001C4F  252800            and ax,0x28
00001C52  0000              add [bx+si],al
00001C54  7405              jz 0x1c5b
00001C56  E805F4            call 0x105e
00001C59  FF                db 0xff
00001C5A  FFC9              dec cx
00001C5C  C3                ret
00001C5D  55                push bp
00001C5E  48                dec ax
00001C5F  89E5              mov bp,sp
00001C61  48                dec ax
00001C62  83EC30            sub sp,byte +0x30
00001C65  48                dec ax
00001C66  897DE8            mov [di-0x18],di
00001C69  48                dec ax
00001C6A  8975E0            mov [di-0x20],si
00001C6D  48                dec ax
00001C6E  8955D8            mov [di-0x28],dx
00001C71  48                dec ax
00001C72  8B45E8            mov ax,[di-0x18]
00001C75  48                dec ax
00001C76  8B4008            mov ax,[bx+si+0x8]
00001C79  48                dec ax
00001C7A  3945E0            cmp [di-0x20],ax
00001C7D  0F84A500          jz near 0x1d26
00001C81  0000              add [bx+si],al
00001C83  48                dec ax
00001C84  8B45E0            mov ax,[di-0x20]
00001C87  0FB64018          movzx ax,[bx+si+0x18]
00001C8B  84C0              test al,al
00001C8D  7409              jz 0x1c98
00001C8F  48                dec ax
00001C90  8D05              lea ax,[di]
00001C92  6A05              push byte +0x5
00001C94  0000              add [bx+si],al
00001C96  EB07              jmp short 0x1c9f
00001C98  48                dec ax
00001C99  8D05              lea ax,[di]
00001C9B  67050000          add ax,0x0
00001C9F  48                dec ax
00001CA0  8945F8            mov [di-0x8],ax
00001CA3  48                dec ax
00001CA4  8B45E0            mov ax,[di-0x20]
00001CA7  8B481C            mov cx,[bx+si+0x1c]
00001CAA  48                dec ax
00001CAB  8B75F8            mov si,[di-0x8]
00001CAE  48                dec ax
00001CAF  8B55E0            mov dx,[di-0x20]
00001CB2  48                dec ax
00001CB3  8B45D8            mov ax,[di-0x28]
00001CB6  49                dec cx
00001CB7  89F0              mov ax,si
00001CB9  48                dec ax
00001CBA  8D35              lea si,[di]
00001CBC  50                push ax
00001CBD  050000            add ax,0x0
00001CC0  48                dec ax
00001CC1  89C7              mov di,ax
00001CC3  B80000            mov ax,0x0
00001CC6  0000              add [bx+si],al
00001CC8  E8C3F3            call 0x108e
00001CCB  FF                db 0xff
00001CCC  FF488B            dec word [bx+si-0x75]
00001CCF  45                inc bp
00001CD0  E048              loopne 0x1d1a
00001CD2  8B10              mov dx,[bx+si]
00001CD4  48                dec ax
00001CD5  8B4DE0            mov cx,[di-0x20]
00001CD8  48                dec ax
00001CD9  8B45D8            mov ax,[di-0x28]
00001CDC  48                dec ax
00001CDD  8D35              lea si,[di]
00001CDF  59                pop cx
00001CE0  050000            add ax,0x0
00001CE3  48                dec ax
00001CE4  89C7              mov di,ax
00001CE6  B80000            mov ax,0x0
00001CE9  0000              add [bx+si],al
00001CEB  E8A0F3            call 0x108e
00001CEE  FF                db 0xff
00001CEF  FF488B            dec word [bx+si-0x75]
00001CF2  45                inc bp
00001CF3  E048              loopne 0x1d3d
00001CF5  8B4808            mov cx,[bx+si+0x8]
00001CF8  48                dec ax
00001CF9  8B55D8            mov dx,[di-0x28]
00001CFC  48                dec ax
00001CFD  8B45E8            mov ax,[di-0x18]
00001D00  48                dec ax
00001D01  89CE              mov si,cx
00001D03  48                dec ax
00001D04  89C7              mov di,ax
00001D06  E852FF            call 0x1c5b
00001D09  FF                db 0xff
00001D0A  FF488B            dec word [bx+si-0x75]
00001D0D  45                inc bp
00001D0E  E048              loopne 0x1d58
00001D10  8B4810            mov cx,[bx+si+0x10]
00001D13  48                dec ax
00001D14  8B55D8            mov dx,[di-0x28]
00001D17  48                dec ax
00001D18  8B45E8            mov ax,[di-0x18]
00001D1B  48                dec ax
00001D1C  89CE              mov si,cx
00001D1E  48                dec ax
00001D1F  89C7              mov di,ax
00001D21  E837FF            call 0x1c5b
00001D24  FF                db 0xff
00001D25  FF                db 0xff
00001D26  EB01              jmp short 0x1d29
00001D28  90                nop
00001D29  C9                leave
00001D2A  C3                ret
00001D2B  55                push bp
00001D2C  48                dec ax
00001D2D  89E5              mov bp,sp
00001D2F  48                dec ax
00001D30  83EC20            sub sp,byte +0x20
00001D33  48                dec ax
00001D34  897DE8            mov [di-0x18],di
00001D37  48                dec ax
00001D38  8975E0            mov [di-0x20],si
00001D3B  48                dec ax
00001D3C  8B45E0            mov ax,[di-0x20]
00001D3F  48                dec ax
00001D40  8D15              lea dx,[di]
00001D42  0205              add al,[di]
00001D44  0000              add [bx+si],al
00001D46  48                dec ax
00001D47  89D6              mov si,dx
00001D49  48                dec ax
00001D4A  89C7              mov di,ax
00001D4C  E86FF3            call 0x10be
00001D4F  FF                db 0xff
00001D50  FF4889            dec word [bx+si-0x77]
00001D53  45                inc bp
00001D54  F8                clc
00001D55  48                dec ax
00001D56  837DF800          cmp word [di-0x8],byte +0x0
00001D5A  7525              jnz 0x1d81
00001D5C  48                dec ax
00001D5D  8B45E0            mov ax,[di-0x20]
00001D60  48                dec ax
00001D61  89C6              mov si,ax
00001D63  48                dec ax
00001D64  8D05              lea ax,[di]
00001D66  E004              loopne 0x1d6c
00001D68  0000              add [bx+si],al
00001D6A  48                dec ax
00001D6B  89C7              mov di,ax
00001D6D  B80000            mov ax,0x0
00001D70  0000              add [bx+si],al
00001D72  E8F9F2            call 0x106e
00001D75  FF                db 0xff
00001D76  FF                db 0xff
00001D77  BF0100            mov di,0x1
00001D7A  0000              add [bx+si],al
00001D7C  E86FF3            call 0x10ee
00001D7F  FF                db 0xff
00001D80  FF488B            dec word [bx+si-0x75]
00001D83  45                inc bp
00001D84  F8                clc
00001D85  48                dec ax
00001D86  89C1              mov cx,ax
00001D88  BA0C00            mov dx,0xc
00001D8B  0000              add [bx+si],al
00001D8D  BE0100            mov si,0x1
00001D90  0000              add [bx+si],al
00001D92  48                dec ax
00001D93  8D05              lea ax,[di]
00001D95  C504              lds ax,[si]
00001D97  0000              add [bx+si],al
00001D99  48                dec ax
00001D9A  89C7              mov di,ax
00001D9C  E85FF3            call 0x10fe
00001D9F  FF                db 0xff
00001DA0  FF488B            dec word [bx+si-0x75]
00001DA3  45                inc bp
00001DA4  E8488B            call 0xa8ef
00001DA7  08488B            or [bx+si-0x75],cl
00001DAA  55                push bp
00001DAB  F8                clc
00001DAC  48                dec ax
00001DAD  8B45E8            mov ax,[di-0x18]
00001DB0  48                dec ax
00001DB1  89CE              mov si,cx
00001DB3  48                dec ax
00001DB4  89C7              mov di,ax
00001DB6  E8A2FE            call 0x1c5b
00001DB9  FF                db 0xff
00001DBA  FF488B            dec word [bx+si-0x75]
00001DBD  45                inc bp
00001DBE  F8                clc
00001DBF  48                dec ax
00001DC0  89C1              mov cx,ax
00001DC2  BA0200            mov dx,0x2
00001DC5  0000              add [bx+si],al
00001DC7  BE0100            mov si,0x1
00001DCA  0000              add [bx+si],al
00001DCC  48                dec ax
00001DCD  8D05              lea ax,[di]
00001DCF  98                cbw
00001DD0  0400              add al,0x0
00001DD2  004889            add [bx+si-0x77],cl
00001DD5  C7                db 0xc7
00001DD6  E825F3            call 0x10fe
00001DD9  FF                db 0xff
00001DDA  FF488B            dec word [bx+si-0x75]
00001DDD  45                inc bp
00001DDE  F8                clc
00001DDF  48                dec ax
00001DE0  89C7              mov di,ax
00001DE2  E869F2            call 0x104e
00001DE5  FF                db 0xff
00001DE6  FF488D            dec word [bx+si-0x73]
00001DE9  058004            add ax,0x480
00001DEC  0000              add [bx+si],al
00001DEE  48                dec ax
00001DEF  89C7              mov di,ax
00001DF1  B80000            mov ax,0x0
00001DF4  0000              add [bx+si],al
00001DF6  E875F2            call 0x106e
00001DF9  FF                db 0xff
00001DFA  FF90C9C3          call [bx+si-0x3c37]
00001DFE  55                push bp
00001DFF  48                dec ax
00001E00  89E5              mov bp,sp
00001E02  48                dec ax
00001E03  83EC50            sub sp,byte +0x50
00001E06  897DBC            mov [di-0x44],di
00001E09  48                dec ax
00001E0A  8975B0            mov [di-0x50],si
00001E0D  BF0000            mov di,0x0
00001E10  0000              add [bx+si],al
00001E12  E889F2            call 0x109e
00001E15  FF                db 0xff
00001E16  FF89C7E8          dec word [bx+di-0x1739]
00001E1A  62                db 0x62
00001E1B  F2                repne
00001E1C  FF                db 0xff
00001E1D  FF                db 0xff
00001E1E  BF2800            mov di,0x28
00001E21  0000              add [bx+si],al
00001E23  E888F2            call 0x10ae
00001E26  FF                db 0xff
00001E27  FF4889            dec word [bx+si-0x77]
00001E2A  45                inc bp
00001E2B  E048              loopne 0x1e75
00001E2D  8B45E0            mov ax,[di-0x20]
00001E30  C6401801          mov byte [bx+si+0x18],0x1
00001E34  48                dec ax
00001E35  8B45E0            mov ax,[di-0x20]
00001E38  48                dec ax
00001E39  8D15              lea dx,[di]
00001E3B  3B04              cmp ax,[si]
00001E3D  0000              add [bx+si],al
00001E3F  48                dec ax
00001E40  895020            mov [bx+si+0x20],dx
00001E43  48                dec ax
00001E44  8B45E0            mov ax,[di-0x20]
00001E47  C7401C3050        mov word [bx+si+0x1c],0x5030
00001E4C  0100              add [bx+si],ax
00001E4E  48                dec ax
00001E4F  8B45E0            mov ax,[di-0x20]
00001E52  48                dec ax
00001E53  8D15              lea dx,[di]
00001E55  250400            and ax,0x4
00001E58  004889            add [bx+si-0x77],cl
00001E5B  D6                salc
00001E5C  48                dec ax
00001E5D  89C7              mov di,ax
00001E5F  E831F4            call 0x1293
00001E62  FF                db 0xff
00001E63  FF4889            dec word [bx+si-0x77]
00001E66  45                inc bp
00001E67  E8837D            call 0x9bed
00001E6A  BC010F            mov sp,0xf01
00001E6D  8E840000          mov es,[si+0x0]
00001E71  00C7              add bh,al
00001E73  45                inc bp
00001E74  CC                int3
00001E75  0100              add [bx+si],ax
00001E77  0000              add [bx+si],al
00001E79  EB71              jmp short 0x1eec
00001E7B  8B45CC            mov ax,[di-0x34]
00001E7E  48                dec ax
00001E7F  98                cbw
00001E80  48                dec ax
00001E81  8D14              lea dx,[si]
00001E83  C500              lds ax,[bx+si]
00001E85  0000              add [bx+si],al
00001E87  00488B            add [bx+si-0x75],cl
00001E8A  45                inc bp
00001E8B  B048              mov al,0x48
00001E8D  01D0              add ax,dx
00001E8F  48                dec ax
00001E90  8B00              mov ax,[bx+si]
00001E92  48                dec ax
00001E93  89C7              mov di,ax
00001E95  E846F2            call 0x10de
00001E98  FF                db 0xff
00001E99  FF8945DC          dec word [bx+di-0x23bb]
00001E9D  48                dec ax
00001E9E  8D05              lea ax,[di]
00001EA0  EC                in al,dx
00001EA1  0300              add ax,[bx+si]
00001EA3  004889            add [bx+si-0x77],cl
00001EA6  45                inc bp
00001EA7  F8                clc
00001EA8  48                dec ax
00001EA9  8B4DF8            mov cx,[di-0x8]
00001EAC  8B55DC            mov dx,[di-0x24]
00001EAF  48                dec ax
00001EB0  8B45E8            mov ax,[di-0x18]
00001EB3  BE0000            mov si,0x0
00001EB6  0000              add [bx+si],al
00001EB8  48                dec ax
00001EB9  89C7              mov di,ax
00001EBB  E859F3            call 0x1217
00001EBE  FF                db 0xff
00001EBF  FF4889            dec word [bx+si-0x77]
00001EC2  C2488B            ret 0x8b48
00001EC5  45                inc bp
00001EC6  E84889            call 0xa811
00001EC9  D6                salc
00001ECA  48                dec ax
00001ECB  89C7              mov di,ax
00001ECD  E8F7F4            call 0x13c7
00001ED0  FF                db 0xff
00001ED1  FF488B            dec word [bx+si-0x75]
00001ED4  45                inc bp
00001ED5  E8488B            call 0xaa20
00001ED8  10488B            adc [bx+si-0x75],cl
00001EDB  45                inc bp
00001EDC  E84889            call 0xa827
00001EDF  D6                salc
00001EE0  48                dec ax
00001EE1  89C7              mov di,ax
00001EE3  E860F8            call 0x1746
00001EE6  FF                db 0xff
00001EE7  FF8345CC          inc word [bp+di-0x33bb]
00001EEB  018B45CC          add [bp+di-0x33bb],cx
00001EEF  3B45BC            cmp ax,[di-0x44]
00001EF2  7C87              jl 0x1e7b
00001EF4  EB72              jmp short 0x1f68
00001EF6  C745D40000        mov word [di-0x2c],0x0
00001EFB  0001              add [bx+di],al
00001EFD  8B45D4            mov ax,[di-0x2c]
00001F00  89C6              mov si,ax
00001F02  48                dec ax
00001F03  8D05              lea ax,[di]
00001F05  8A03              mov al,[bp+di]
00001F07  0000              add [bx+si],al
00001F09  48                dec ax
00001F0A  89C7              mov di,ax
00001F0C  B80000            mov ax,0x0
00001F0F  0000              add [bx+si],al
00001F11  E85AF1            call 0x106e
00001F14  FF                db 0xff
00001F15  FFC7              inc di
00001F17  45                inc bp
00001F18  D000              rol byte [bx+si],1
00001F1A  0000              add [bx+si],al
00001F1C  00EB              add bl,ch
00001F1E  41                inc cx
00001F1F  E8ECF1            call 0x110e
00001F22  FF                db 0xff
00001F23  FF8945D8          dec word [bx+di-0x27bb]
00001F27  48                dec ax
00001F28  8D05              lea ax,[di]
00001F2A  7203              jc 0x1f2f
00001F2C  0000              add [bx+si],al
00001F2E  48                dec ax
00001F2F  8945F0            mov [di-0x10],ax
00001F32  48                dec ax
00001F33  8B4DF0            mov cx,[di-0x10]
00001F36  8B55D8            mov dx,[di-0x28]
00001F39  48                dec ax
00001F3A  8B45E8            mov ax,[di-0x18]
00001F3D  BE0000            mov si,0x0
00001F40  0000              add [bx+si],al
00001F42  48                dec ax
00001F43  89C7              mov di,ax
00001F45  E8CFF2            call 0x1217
00001F48  FF                db 0xff
00001F49  FF4889            dec word [bx+si-0x77]
00001F4C  C2488B            ret 0x8b48
00001F4F  45                inc bp
00001F50  E84889            call 0xa89b
00001F53  D6                salc
00001F54  48                dec ax
00001F55  89C7              mov di,ax
00001F57  E86DF4            call 0x13c7
00001F5A  FF                db 0xff
00001F5B  FF8345D0          inc word [bp+di-0x2fbb]
00001F5F  018B45D0          add [bp+di-0x2fbb],cx
00001F63  3B45D4            cmp ax,[di-0x2c]
00001F66  7CB7              jl 0x1f1f
00001F68  B80000            mov ax,0x0
00001F6B  0000              add [bx+si],al
00001F6D  C9                leave
00001F6E  C3                ret
00001F6F  00F3              add bl,dh
00001F71  0F1EFA            hint_nop55 dx
00001F74  48                dec ax
00001F75  83EC08            sub sp,byte +0x8
00001F78  48                dec ax
00001F79  83C408            add sp,byte +0x8
00001F7C  C3                ret
00001F7D  0000              add [bx+si],al
00001F7F  0000              add [bx+si],al
00001F81  0000              add [bx+si],al
00001F83  0000              add [bx+si],al
00001F85  0000              add [bx+si],al
00001F87  0000              add [bx+si],al
00001F89  0000              add [bx+si],al
00001F8B  0000              add [bx+si],al
00001F8D  0000              add [bx+si],al
00001F8F  0000              add [bx+si],al
00001F91  0000              add [bx+si],al
00001F93  0000              add [bx+si],al
00001F95  0000              add [bx+si],al
00001F97  0000              add [bx+si],al
00001F99  0000              add [bx+si],al
00001F9B  0000              add [bx+si],al
00001F9D  0000              add [bx+si],al
00001F9F  0000              add [bx+si],al
00001FA1  0000              add [bx+si],al
00001FA3  0000              add [bx+si],al
00001FA5  0000              add [bx+si],al
00001FA7  0000              add [bx+si],al
00001FA9  0000              add [bx+si],al
00001FAB  0000              add [bx+si],al
00001FAD  0000              add [bx+si],al
00001FAF  0000              add [bx+si],al
00001FB1  0000              add [bx+si],al
00001FB3  0000              add [bx+si],al
00001FB5  0000              add [bx+si],al
00001FB7  0000              add [bx+si],al
00001FB9  0000              add [bx+si],al
00001FBB  0000              add [bx+si],al
00001FBD  0000              add [bx+si],al
00001FBF  0000              add [bx+si],al
00001FC1  0000              add [bx+si],al
00001FC3  0000              add [bx+si],al
00001FC5  0000              add [bx+si],al
00001FC7  0000              add [bx+si],al
00001FC9  0000              add [bx+si],al
00001FCB  0000              add [bx+si],al
00001FCD  0000              add [bx+si],al
00001FCF  0000              add [bx+si],al
00001FD1  0000              add [bx+si],al
00001FD3  0000              add [bx+si],al
00001FD5  0000              add [bx+si],al
00001FD7  0000              add [bx+si],al
00001FD9  0000              add [bx+si],al
00001FDB  0000              add [bx+si],al
00001FDD  0000              add [bx+si],al
00001FDF  0000              add [bx+si],al
00001FE1  0000              add [bx+si],al
00001FE3  0000              add [bx+si],al
00001FE5  0000              add [bx+si],al
00001FE7  0000              add [bx+si],al
00001FE9  0000              add [bx+si],al
00001FEB  0000              add [bx+si],al
00001FED  0000              add [bx+si],al
00001FEF  0000              add [bx+si],al
00001FF1  0000              add [bx+si],al
00001FF3  0000              add [bx+si],al
00001FF5  0000              add [bx+si],al
00001FF7  0000              add [bx+si],al
00001FF9  0000              add [bx+si],al
00001FFB  0000              add [bx+si],al
00001FFD  0000              add [bx+si],al
00001FFF  0001              add [bx+di],al
00002001  0002              add [bp+si],al
00002003  0000              add [bx+si],al
00002005  0000              add [bx+si],al
00002007  00524F            add [bp+si+0x4f],dl
0000200A  4F                dec di
0000200B  54                push sp
0000200C  006E61            add [bp+0x61],ch
0000200F  6D                insw
00002010  650925            or [gs:di],sp
00002013  730A              jnc 0x201f
00002015  6B657909          imul sp,[di+0x79],byte +0x9
00002019  25640A            and ax,0xa64
0000201C  636F6C            arpl [bx+0x6c],bp
0000201F  6F                outsw
00002020  7209              jc 0x202b
00002022  25630A            and ax,0xa63
00002025  000A              add [bp+si],cl
00002027  4C                dec sp
00002028  45                inc bp
00002029  46                inc si
0000202A  54                push sp
0000202B  204E49            and [bp+0x49],cl
0000202E  4C                dec sp
0000202F  000A              add [bp+si],cl
00002031  4C                dec sp
00002032  45                inc bp
00002033  46                inc si
00002034  54                push sp
00002035  000A              add [bp+si],cl
00002037  52                push dx
00002038  49                dec cx
00002039  47                inc di
0000203A  48                dec ax
0000203B  54                push sp
0000203C  204E49            and [bp+0x49],cl
0000203F  4C                dec sp
00002040  000A              add [bp+si],cl
00002042  52                push dx
00002043  49                dec cx
00002044  47                inc di
00002045  48                dec ax
00002046  54                push sp
00002047  00526F            add [bp+si+0x6f],dl
0000204A  7461              jz 0x20ad
0000204C  7465              jz 0x20b3
0000204E  206572            and [di+0x72],ah
00002051  726F              jc 0x20c2
00002053  722E              jc 0x2083
00002055  004655            add [bp+0x55],al
00002058  43                inc bx
00002059  4B                dec bx
0000205A  20414C            and [bx+di+0x4c],al
0000205D  4C                dec sp
0000205E  204F46            and [bx+0x46],cl
00002061  20594F            and [bx+di+0x4f],bl
00002064  55                push bp
00002065  000A              add [bp+si],cl
00002067  3E2000            and [ds:bx+si],al
0000206A  2025              and [di],ah
0000206C  6300              arpl [bx+si],ax
0000206E  4E                dec si
0000206F  49                dec cx
00002070  4C                dec sp
00002071  2C20              sub al,0x20
00002073  6E                outsb
00002074  6F                outsw
00002075  7420              jz 0x2097
00002077  706F              jo 0x20e8
00002079  7373              jnc 0x20ee
0000207B  69626C6500        imul sp,[bp+si+0x6c],word 0x65
00002080  49                dec cx
00002081  4E                dec si
00002082  56                push si
00002083  41                inc cx
00002084  4C                dec sp
00002085  49                dec cx
00002086  44                inc sp
00002087  204F50            and [bx+0x50],cl
0000208A  54                push sp
0000208B  49                dec cx
0000208C  4F                dec di
0000208D  4E                dec si
0000208E  2C20              sub al,0x20
00002090  7573              jnz 0x2105
00002092  65206F6E          and [gs:bx+0x6e],ch
00002096  6C                insb
00002097  7920              jns 0x20b9
00002099  702C              jo 0x20c7
0000209B  206C2C            and [si+0x2c],ch
0000209E  207200            and [bp+si+0x0],dh
000020A1  0000              add [bx+si],al
000020A3  00C5              add ch,al
000020A5  F7FF              idiv di
000020A7  FF03              inc word [bp+di]
000020A9  F8                clc
000020AA  FF                db 0xff
000020AB  FF03              inc word [bp+di]
000020AD  F8                clc
000020AE  FF                db 0xff
000020AF  FF03              inc word [bp+di]
000020B1  F8                clc
000020B2  FF                db 0xff
000020B3  FF03              inc word [bp+di]
000020B5  F8                clc
000020B6  FF                db 0xff
000020B7  FF03              inc word [bp+di]
000020B9  F8                clc
000020BA  FF                db 0xff
000020BB  FF                db 0xff
000020BC  DFF7              fcomip st7
000020BE  FF                db 0xff
000020BF  FF03              inc word [bp+di]
000020C1  F8                clc
000020C2  FF                db 0xff
000020C3  FF03              inc word [bp+di]
000020C5  F8                clc
000020C6  FF                db 0xff
000020C7  FF03              inc word [bp+di]
000020C9  F8                clc
000020CA  FF                db 0xff
000020CB  FF03              inc word [bp+di]
000020CD  F8                clc
000020CE  FF                db 0xff
000020CF  FF03              inc word [bp+di]
000020D1  F8                clc
000020D2  FF                db 0xff
000020D3  FF03              inc word [bp+di]
000020D5  F8                clc
000020D6  FF                db 0xff
000020D7  FF03              inc word [bp+di]
000020D9  F8                clc
000020DA  FF                db 0xff
000020DB  FF03              inc word [bp+di]
000020DD  F8                clc
000020DE  FF                db 0xff
000020DF  FF03              inc word [bp+di]
000020E1  F8                clc
000020E2  FF                db 0xff
000020E3  FF03              inc word [bp+di]
000020E5  F8                clc
000020E6  FF                db 0xff
000020E7  FF03              inc word [bp+di]
000020E9  F8                clc
000020EA  FF                db 0xff
000020EB  FF03              inc word [bp+di]
000020ED  F8                clc
000020EE  FF                db 0xff
000020EF  FF03              inc word [bp+di]
000020F1  F8                clc
000020F2  FF                db 0xff
000020F3  FF03              inc word [bp+di]
000020F5  F8                clc
000020F6  FF                db 0xff
000020F7  FF03              inc word [bp+di]
000020F9  F8                clc
000020FA  FF                db 0xff
000020FB  FF03              inc word [bp+di]
000020FD  F8                clc
000020FE  FF                db 0xff
000020FF  FF03              inc word [bp+di]
00002101  F8                clc
00002102  FF                db 0xff
00002103  FF03              inc word [bp+di]
00002105  F8                clc
00002106  FF                db 0xff
00002107  FF27              jmp [bx]
00002109  F8                clc
0000210A  FF                db 0xff
0000210B  FF03              inc word [bp+di]
0000210D  F8                clc
0000210E  FF                db 0xff
0000210F  FF03              inc word [bp+di]
00002111  F8                clc
00002112  FF                db 0xff
00002113  FF03              inc word [bp+di]
00002115  F8                clc
00002116  FF                db 0xff
00002117  FF03              inc word [bp+di]
00002119  F8                clc
0000211A  FF                db 0xff
0000211B  FF03              inc word [bp+di]
0000211D  F8                clc
0000211E  FF                db 0xff
0000211F  FF03              inc word [bp+di]
00002121  F8                clc
00002122  FF                db 0xff
00002123  FF57F7            call [bx-0x9]
00002126  FF                db 0xff
00002127  FF03              inc word [bp+di]
00002129  F8                clc
0000212A  FF                db 0xff
0000212B  FF03              inc word [bp+di]
0000212D  F8                clc
0000212E  FF                db 0xff
0000212F  FF03              inc word [bp+di]
00002131  F8                clc
00002132  FF                db 0xff
00002133  FF47F7            inc word [bx-0x9]
00002136  FF                db 0xff
00002137  FF03              inc word [bp+di]
00002139  F8                clc
0000213A  FF                db 0xff
0000213B  FF91F7FF          call [bx+di-0x9]
0000213F  FF03              inc word [bp+di]
00002141  F8                clc
00002142  FF                db 0xff
00002143  FF                db 0xff
00002144  F9                stc
00002145  F7FF              idiv di
00002147  FF25              jmp [di]
00002149  64202D            and [fs:di],ch
0000214C  20426C            and [bp+si+0x6c],al
0000214F  61                popa
00002150  636B20            arpl [bp+di+0x20],bp
00002153  7072              jo 0x21c7
00002155  6F                outsw
00002156  7065              jo 0x21bd
00002158  7274              jc 0x21ce
0000215A  7920              jns 0x217c
0000215C  6661              popad
0000215E  696C0A0025        imul bp,[si+0xa],word 0x2500
00002163  64202D            and [fs:di],ch
00002166  205265            and [bp+si+0x65],dl
00002169  64207072          and [fs:bx+si+0x72],dh
0000216D  6F                outsw
0000216E  7065              jo 0x21d5
00002170  7274              jc 0x21e6
00002172  7920              jns 0x2194
00002174  6661              popad
00002176  696C0A0000        imul bp,[si+0xa],word 0x0
0000217B  0000              add [bx+si],al
0000217D  0000              add [bx+si],al
0000217F  006361            add [bp+di+0x61],ah
00002182  6C                insb
00002183  63756C            arpl [di+0x6c],si
00002186  61                popa
00002187  7465              jz 0x21ee
00002189  64206E6F          and [fs:bp+0x6f],ch
0000218D  6465206E75        and [gs:bp+0x75],ch
00002192  6D                insw
00002193  626572            bound sp,[di+0x72]
00002196  206E6F            and [bp+0x6f],ch
00002199  7420              jz 0x21bb
0000219B  61                popa
0000219C  636375            arpl [bp+di+0x75],sp
0000219F  7261              jc 0x2202
000021A1  7465              jz 0x2208
000021A3  2C20              sub al,0x20
000021A5  6E                outsb
000021A6  6F                outsw
000021A7  6465206C6F        and [gs:si+0x6f],ch
000021AC  7373              jnc 0x2221
000021AE  61                popa
000021AF  67650000          add [gs:eax],al
000021B3  0000              add [bx+si],al
000021B5  0000              add [bx+si],al
000021B7  000A              add [bp+si],cl
000021B9  0A25              or ah,[di]
000021BB  64202D            and [fs:di],ch
000021BE  206E6F            and [bp+0x6f],ch
000021C1  6465730A          gs jnc 0x21cf
000021C5  256420            and ax,0x2064
000021C8  2D2063            sub ax,0x6320
000021CB  61                popa
000021CC  6C                insb
000021CD  63756C            arpl [di+0x6c],si
000021D0  61                popa
000021D1  7465              jz 0x2238
000021D3  64206E6F          and [fs:bp+0x6f],ch
000021D7  6465206E75        and [gs:bp+0x75],ch
000021DC  6D                insw
000021DD  626572            bound sp,[di+0x72]
000021E0  0A00              or al,[bx+si]
000021E2  0A6361            or ah,[bp+di+0x61]
000021E5  6C                insb
000021E6  63756C            arpl [di+0x6c],si
000021E9  61                popa
000021EA  7465              jz 0x2251
000021EC  6420626C          and [fs:bp+si+0x6c],ah
000021F0  61                popa
000021F1  636B68            arpl [bp+di+0x68],bp
000021F4  656967687420      imul sp,[gs:bx+0x68],word 0x2074
000021FA  2D2025            sub ax,0x2520
000021FD  640A00            or al,[fs:bx+si]
00002200  626C61            bound bp,[si+0x61]
00002203  636B00            arpl [bp+di+0x0],bp
00002206  7265              jc 0x226d
00002208  640000            add [fs:bx+si],al
0000220B  0000              add [bx+si],al
0000220D  0000              add [bx+si],al
0000220F  007825            add [bx+si+0x25],bh
00002212  7820              js 0x2234
00002214  5B                pop bx
00002215  6C                insb
00002216  61                popa
00002217  62656C            bound sp,[di+0x6c]
0000221A  3D2225            cmp ax,0x2522
0000221D  64222C            and ch,[fs:si]
00002220  636F6C            arpl [bx+0x6c],bp
00002223  6F                outsw
00002224  723D              jc 0x2263
00002226  2225              and ah,[di]
00002228  7322              jnc 0x224c
0000222A  2C73              sub al,0x73
0000222C  7479              jz 0x22a7
0000222E  6C                insb
0000222F  653D2266          gs cmp ax,0x6622
00002233  696C6C6564        imul bp,[si+0x6c],word 0x6465
00002238  225D0A            and bl,[di+0xa]
0000223B  007825            add [bx+si+0x25],bh
0000223E  7820              js 0x2260
00002240  2D3E20            sub ax,0x203e
00002243  7825              js 0x226a
00002245  780A              js 0x2251
00002247  007700            add [bx+0x0],dh
0000224A  55                push bp
0000224B  6E                outsb
0000224C  61                popa
0000224D  626C65            bound bp,[si+0x65]
00002250  20746F            and [si+0x6f],dh
00002253  206F70            and [bx+0x70],ch
00002256  656E              gs outsb
00002258  2025              and [di],ah
0000225A  732E              jnc 0x228a
0000225C  0A00              or al,[bx+si]
0000225E  44                inc sp
0000225F  6967726170        imul sp,[bx+0x72],word 0x7061
00002264  682047            push word 0x4720
00002267  207B0A            and [bp+di+0xa],bh
0000226A  007D0A            add [di+0xa],bh
0000226D  0025              add [di],ah
0000226F  7320              jnc 0x2291
00002271  636C6F            arpl [si+0x6f],bp
00002274  7365              jnc 0x22db
00002276  642E0A00          or al,[cs:bx+si]
0000227A  4E                dec si
0000227B  49                dec cx
0000227C  4C                dec sp
0000227D  004D79            add [di+0x79],cl
00002280  205265            and [bp+si+0x65],dl
00002283  6420426C          and [fs:bp+si+0x6c],al
00002287  61                popa
00002288  636B20            arpl [bp+di+0x20],bp
0000228B  54                push sp
0000228C  7265              jc 0x22f3
0000228E  65006F6B          add [gs:bx+0x6b],ch
00002292  006E75            add [bp+0x75],ch
00002295  6D                insw
00002296  626572            bound sp,[di+0x72]
00002299  202D              and [di],ch
0000229B  2025              and [di],ah
0000229D  640A00            or al,[fs:bx+si]
000022A0  206974            and [bx+di+0x74],ch
000022A3  68206E            push word 0x6e20
000022A6  6F                outsw
000022A7  64650000          add [gs:bx+si],al
000022AB  0001              add [bx+di],al
000022AD  1B03              sbb ax,[bp+di]
000022AF  3BA00000          cmp sp,[bx+si+0x0]
000022B3  0013              add [bp+di],dl
000022B5  0000              add [bx+si],al
000022B7  0074ED            add [si-0x13],dh
000022BA  FF                db 0xff
000022BB  FFD4              call sp
000022BD  0000              add [bx+si],al
000022BF  0074EE            add [si-0x12],dh
000022C2  FF                db 0xff
000022C3  FF                db 0xff
000022C4  BC0000            mov sp,0x0
000022C7  006DEF            add [di-0x11],ch
000022CA  FF                db 0xff
000022CB  FF                db 0xff
000022CC  FC                cld
000022CD  0000              add [bx+si],al
000022CF  00E9              add cl,ch
000022D1  EF                out dx,ax
000022D2  FF                db 0xff
000022D3  FF1C              call far [si]
000022D5  0100              add [bx+si],ax
000022D7  0051F0            add [bx+di-0x10],dl
000022DA  FF                db 0xff
000022DB  FF                db 0xff
000022DC  3C01              cmp al,0x1
000022DE  0000              add [bx+si],al
000022E0  1DF1FF            sbb ax,0xfff1
000022E3  FF5C01            call far [si+0x1]
000022E6  0000              add [bx+si],al
000022E8  C2F1FF            ret 0xfff1
000022EB  FF                db 0xff
000022EC  7C01              jl 0x22ef
000022EE  0000              add [bx+si],al
000022F0  DFF1              fcomip st1
000022F2  FF                db 0xff
000022F3  FF9C0100          call far [si+0x1]
000022F7  0032              add [bp+si],dh
000022F9  F3                rep
000022FA  FF                db 0xff
000022FB  FF                db 0xff
000022FC  BC0100            mov sp,0x1
000022FF  009CF4FF          add [si-0xc],bl
00002303  FF                db 0xff
00002304  DC01              fadd qword [bx+di]
00002306  0000              add [bx+si],al
00002308  36F6FF            ss idiv bh
0000230B  FF                db 0xff
0000230C  FC                cld
0000230D  0100              add [bx+si],ax
0000230F  0052F6            add [bp+si-0xa],dl
00002312  FF                db 0xff
00002313  FF1C              call far [si]
00002315  0200              add al,[bx+si]
00002317  0065F6            add [di-0xa],ah
0000231A  FF                db 0xff
0000231B  FF                db 0xff
0000231C  3C02              cmp al,0x2
0000231E  0000              add [bx+si],al
00002320  78F6              js 0x2318
00002322  FF                db 0xff
00002323  FF5C02            call far [si+0x2]
00002326  0000              add [bx+si],al
00002328  1E                push ds
00002329  F8                clc
0000232A  FF                db 0xff
0000232B  FF                db 0xff
0000232C  7C02              jl 0x2330
0000232E  0000              add [bx+si],al
00002330  05F9FF            add ax,0xfff9
00002333  FF9C0200          call far [si+0x2]
00002337  00B1F9FF          add [bx+di-0x7],dh
0000233B  FF                db 0xff
0000233C  BC0200            mov sp,0x2
0000233F  007FFA            add [bx-0x6],bh
00002342  FF                db 0xff
00002343  FF                db 0xff
00002344  DC02              fadd qword [bp+si]
00002346  0000              add [bx+si],al
00002348  52                push dx
00002349  FB                sti
0000234A  FF                db 0xff
0000234B  FF                db 0xff
0000234C  FC                cld
0000234D  0200              add al,[bx+si]
0000234F  0014              add [si],dl
00002351  0000              add [bx+si],al
00002353  0000              add [bx+si],al
00002355  0000              add [bx+si],al
00002357  0001              add [bx+di],al
00002359  7A52              jpe 0x23ad
0000235B  0001              add [bx+di],al
0000235D  7810              js 0x236f
0000235F  011B              add [bp+di],bx
00002361  0C07              or al,0x7
00002363  08900100          or [bx+si+0x1],dl
00002367  0014              add [si],dl
00002369  0000              add [bx+si],al
0000236B  001C              add [si],bl
0000236D  0000              add [bx+si],al
0000236F  00B0EDFF          add [bx+si-0x13],dh
00002373  FF260000          jmp [0x0]
00002377  0000              add [bx+si],al
00002379  44                inc sp
0000237A  07                pop es
0000237B  1000              adc [bx+si],al
0000237D  0000              add [bx+si],al
0000237F  0024              add [si],ah
00002381  0000              add [bx+si],al
00002383  0034              add [si],dh
00002385  0000              add [bx+si],al
00002387  0098ECFF          add [bx+si-0x14],bl
0000238B  FF00              inc word [bx+si]
0000238D  0100              add [bx+si],ax
0000238F  0000              add [bx+si],al
00002391  0E                push cs
00002392  10460E            adc [bp+0xe],al
00002395  184A0F            sbb [bp+si+0xf],cl
00002398  0B7708            or si,[bx+0x8]
0000239B  80003F            add byte [bx+si],0x3f
0000239E  1A3B              sbb bh,[bp+di]
000023A0  2A33              sub dh,[bp+di]
000023A2  2422              and al,0x22
000023A4  0000              add [bx+si],al
000023A6  0000              add [bx+si],al
000023A8  1C00              sbb al,0x0
000023AA  0000              add [bx+si],al
000023AC  5C                pop sp
000023AD  0000              add [bx+si],al
000023AF  0069EE            add [bx+di-0x12],ch
000023B2  FF                db 0xff
000023B3  FF                db 0xff
000023B4  7C00              jl 0x23b6
000023B6  0000              add [bx+si],al
000023B8  00410E            add [bx+di+0xe],al
000023BB  10860243          adc [bp+0x4302],al
000023BF  0D0602            or ax,0x206
000023C2  770C              ja 0x23d0
000023C4  07                pop es
000023C5  0800              or [bx+si],al
000023C7  001C              add [si],bl
000023C9  0000              add [bx+si],al
000023CB  007C00            add [si+0x0],bh
000023CE  0000              add [bx+si],al
000023D0  C5                db 0xc5
000023D1  EE                out dx,al
000023D2  FF                db 0xff
000023D3  FF6800            jmp far [bx+si+0x0]
000023D6  0000              add [bx+si],al
000023D8  00410E            add [bx+di+0xe],al
000023DB  10860243          adc [bp+0x4302],al
000023DF  0D0602            or ax,0x206
000023E2  630C              arpl [si],cx
000023E4  07                pop es
000023E5  0800              or [bx+si],al
000023E7  001C              add [si],bl
000023E9  0000              add [bx+si],al
000023EB  009C0000          add [si+0x0],bl
000023EF  000D              add [di],cl
000023F1  EF                out dx,ax
000023F2  FF                db 0xff
000023F3  FFCC              dec sp
000023F5  0000              add [bx+si],al
000023F7  0000              add [bx+si],al
000023F9  41                inc cx
000023FA  0E                push cs
000023FB  10860243          adc [bp+0x4302],al
000023FF  0D0602            or ax,0x206
00002402  C7                db 0xc7
00002403  0C07              or al,0x7
00002405  0800              or [bx+si],al
00002407  001C              add [si],bl
00002409  0000              add [bx+si],al
0000240B  00BC0000          add [si+0x0],bh
0000240F  00B9EFFF          add [bx+di-0x11],bh
00002413  FFA50000          jmp [di+0x0]
00002417  0000              add [bx+si],al
00002419  41                inc cx
0000241A  0E                push cs
0000241B  10860243          adc [bp+0x4302],al
0000241F  0D0602            or ax,0x206
00002422  A00C07            mov al,[0x70c]
00002425  0800              or [bx+si],al
00002427  001C              add [si],bl
00002429  0000              add [bx+si],al
0000242B  00DC              add ah,bl
0000242D  0000              add [bx+si],al
0000242F  003EF0FF          add [0xfff0],bh
00002433  FF1D              call far [di]
00002435  0000              add [bx+si],al
00002437  0000              add [bx+si],al
00002439  41                inc cx
0000243A  0E                push cs
0000243B  10860243          adc [bp+0x4302],al
0000243F  0D0658            or ax,0x5806
00002442  0C07              or al,0x7
00002444  0800              or [bx+si],al
00002446  0000              add [bx+si],al
00002448  1C00              sbb al,0x0
0000244A  0000              add [bx+si],al
0000244C  FC                cld
0000244D  0000              add [bx+si],al
0000244F  003B              add [bp+di],bh
00002451  F0                lock
00002452  FF                db 0xff
00002453  FF5301            call [bp+di+0x1]
00002456  0000              add [bx+si],al
00002458  00410E            add [bx+di+0xe],al
0000245B  10860243          adc [bp+0x4302],al
0000245F  0D0603            or ax,0x306
00002462  4E                dec si
00002463  010C              add [si],cx
00002465  07                pop es
00002466  0800              or [bx+si],al
00002468  1C00              sbb al,0x0
0000246A  0000              add [bx+si],al
0000246C  1C01              sbb al,0x1
0000246E  0000              add [bx+si],al
00002470  6E                outsb
00002471  F1                int1
00002472  FF                db 0xff
00002473  FF6A01            jmp far [bp+si+0x1]
00002476  0000              add [bx+si],al
00002478  00410E            add [bx+di+0xe],al
0000247B  10860243          adc [bp+0x4302],al
0000247F  0D0603            or ax,0x306
00002482  65010C            add [gs:si],cx
00002485  07                pop es
00002486  0800              or [bx+si],al
00002488  1C00              sbb al,0x0
0000248A  0000              add [bx+si],al
0000248C  3C01              cmp al,0x1
0000248E  0000              add [bx+si],al
00002490  B8F2FF            mov ax,0xfff2
00002493  FF9A0100          call far [bp+si+0x1]
00002497  0000              add [bx+si],al
00002499  41                inc cx
0000249A  0E                push cs
0000249B  10860243          adc [bp+0x4302],al
0000249F  0D0603            or ax,0x306
000024A2  95                xchg ax,bp
000024A3  010C              add [si],cx
000024A5  07                pop es
000024A6  0800              or [bx+si],al
000024A8  1C00              sbb al,0x0
000024AA  0000              add [bx+si],al
000024AC  5C                pop sp
000024AD  0100              add [bx+si],ax
000024AF  0032              add [bp+si],dh
000024B1  F4                hlt
000024B2  FF                db 0xff
000024B3  FF1C              call far [si]
000024B5  0000              add [bx+si],al
000024B7  0000              add [bx+si],al
000024B9  41                inc cx
000024BA  0E                push cs
000024BB  10860243          adc [bp+0x4302],al
000024BF  0D0657            or ax,0x5706
000024C2  0C07              or al,0x7
000024C4  0800              or [bx+si],al
000024C6  0000              add [bx+si],al
000024C8  1C00              sbb al,0x0
000024CA  0000              add [bx+si],al
000024CC  7C01              jl 0x24cf
000024CE  0000              add [bx+si],al
000024D0  2EF4              cs hlt
000024D2  FF                db 0xff
000024D3  FF13              call [bp+di]
000024D5  0000              add [bx+si],al
000024D7  0000              add [bx+si],al
000024D9  41                inc cx
000024DA  0E                push cs
000024DB  10860243          adc [bp+0x4302],al
000024DF  0D064E            or ax,0x4e06
000024E2  0C07              or al,0x7
000024E4  0800              or [bx+si],al
000024E6  0000              add [bx+si],al
000024E8  1C00              sbb al,0x0
000024EA  0000              add [bx+si],al
000024EC  9C                pushf
000024ED  0100              add [bx+si],ax
000024EF  0021              add [bx+di],ah
000024F1  F4                hlt
000024F2  FF                db 0xff
000024F3  FF13              call [bp+di]
000024F5  0000              add [bx+si],al
000024F7  0000              add [bx+si],al
000024F9  41                inc cx
000024FA  0E                push cs
000024FB  10860243          adc [bp+0x4302],al
000024FF  0D064E            or ax,0x4e06
00002502  0C07              or al,0x7
00002504  0800              or [bx+si],al
00002506  0000              add [bx+si],al
00002508  1C00              sbb al,0x0
0000250A  0000              add [bx+si],al
0000250C  BC0100            mov sp,0x1
0000250F  0014              add [si],dl
00002511  F4                hlt
00002512  FF                db 0xff
00002513  FFA60100          jmp [bp+0x1]
00002517  0000              add [bx+si],al
00002519  41                inc cx
0000251A  0E                push cs
0000251B  10860243          adc [bp+0x4302],al
0000251F  0D0603            or ax,0x306
00002522  A1010C            mov ax,[0xc01]
00002525  07                pop es
00002526  0800              or [bx+si],al
00002528  1C00              sbb al,0x0
0000252A  0000              add [bx+si],al
0000252C  DC01              fadd qword [bx+di]
0000252E  0000              add [bx+si],al
00002530  9AF5FFFFE7        call 0xe7ff:0xfff5
00002535  0000              add [bx+si],al
00002537  0000              add [bx+si],al
00002539  41                inc cx
0000253A  0E                push cs
0000253B  10860243          adc [bp+0x4302],al
0000253F  0D0602            or ax,0x206
00002542  E20C              loop 0x2550
00002544  07                pop es
00002545  0800              or [bx+si],al
00002547  001C              add [si],bl
00002549  0000              add [bx+si],al
0000254B  00FC              add ah,bh
0000254D  0100              add [bx+si],ax
0000254F  0061F6            add [bx+di-0xa],ah
00002552  FF                db 0xff
00002553  FFAC0000          jmp far [si+0x0]
00002557  0000              add [bx+si],al
00002559  41                inc cx
0000255A  0E                push cs
0000255B  10860243          adc [bp+0x4302],al
0000255F  0D0602            or ax,0x206
00002562  A7                cmpsw
00002563  0C07              or al,0x7
00002565  0800              or [bx+si],al
00002567  001C              add [si],bl
00002569  0000              add [bx+si],al
0000256B  001C              add [si],bl
0000256D  0200              add al,[bx+si]
0000256F  00ED              add ch,ch
00002571  F6FF              idiv bh
00002573  FFCE              dec si
00002575  0000              add [bx+si],al
00002577  0000              add [bx+si],al
00002579  41                inc cx
0000257A  0E                push cs
0000257B  10860243          adc [bp+0x4302],al
0000257F  0D0602            or ax,0x206
00002582  C9                leave
00002583  0C07              or al,0x7
00002585  0800              or [bx+si],al
00002587  001C              add [si],bl
00002589  0000              add [bx+si],al
0000258B  003C              add [si],bh
0000258D  0200              add al,[bx+si]
0000258F  009BF7FF          add [bp+di-0x9],bl
00002593  FFD3              call bx
00002595  0000              add [bx+si],al
00002597  0000              add [bx+si],al
00002599  41                inc cx
0000259A  0E                push cs
0000259B  10860243          adc [bp+0x4302],al
0000259F  0D0602            or ax,0x206
000025A2  CE                into
000025A3  0C07              or al,0x7
000025A5  0800              or [bx+si],al
000025A7  001C              add [si],bl
000025A9  0000              add [bx+si],al
000025AB  005C02            add [si+0x2],bl
000025AE  0000              add [bx+si],al
000025B0  4E                dec si
000025B1  F8                clc
000025B2  FF                db 0xff
000025B3  FF7101            push word [bx+di+0x1]
000025B6  0000              add [bx+si],al
000025B8  00410E            add [bx+di+0xe],al
000025BB  10860243          adc [bp+0x4302],al
000025BF  0D0603            or ax,0x306
000025C2  6C                insb
000025C3  010C              add [si],cx
000025C5  07                pop es
000025C6  0800              or [bx+si],al
000025C8  0000              add [bx+si],al
000025CA  0000              add [bx+si],al
000025CC  0000              add [bx+si],al
000025CE  0000              add [bx+si],al
000025D0  0000              add [bx+si],al
000025D2  0000              add [bx+si],al
000025D4  0000              add [bx+si],al
000025D6  0000              add [bx+si],al
000025D8  0000              add [bx+si],al
000025DA  0000              add [bx+si],al
000025DC  0000              add [bx+si],al
000025DE  0000              add [bx+si],al
000025E0  0000              add [bx+si],al
000025E2  0000              add [bx+si],al
000025E4  0000              add [bx+si],al
000025E6  0000              add [bx+si],al
000025E8  0000              add [bx+si],al
000025EA  0000              add [bx+si],al
000025EC  0000              add [bx+si],al
000025EE  0000              add [bx+si],al
000025F0  0000              add [bx+si],al
000025F2  0000              add [bx+si],al
000025F4  0000              add [bx+si],al
000025F6  0000              add [bx+si],al
000025F8  0000              add [bx+si],al
000025FA  0000              add [bx+si],al
000025FC  0000              add [bx+si],al
000025FE  0000              add [bx+si],al
00002600  0000              add [bx+si],al
00002602  0000              add [bx+si],al
00002604  0000              add [bx+si],al
00002606  0000              add [bx+si],al
00002608  0000              add [bx+si],al
0000260A  0000              add [bx+si],al
0000260C  0000              add [bx+si],al
0000260E  0000              add [bx+si],al
00002610  0000              add [bx+si],al
00002612  0000              add [bx+si],al
00002614  0000              add [bx+si],al
00002616  0000              add [bx+si],al
00002618  0000              add [bx+si],al
0000261A  0000              add [bx+si],al
0000261C  0000              add [bx+si],al
0000261E  0000              add [bx+si],al
00002620  0000              add [bx+si],al
00002622  0000              add [bx+si],al
00002624  0000              add [bx+si],al
00002626  0000              add [bx+si],al
00002628  0000              add [bx+si],al
0000262A  0000              add [bx+si],al
0000262C  0000              add [bx+si],al
0000262E  0000              add [bx+si],al
00002630  0000              add [bx+si],al
00002632  0000              add [bx+si],al
00002634  0000              add [bx+si],al
00002636  0000              add [bx+si],al
00002638  0000              add [bx+si],al
0000263A  0000              add [bx+si],al
0000263C  0000              add [bx+si],al
0000263E  0000              add [bx+si],al
00002640  0000              add [bx+si],al
00002642  0000              add [bx+si],al
00002644  0000              add [bx+si],al
00002646  0000              add [bx+si],al
00002648  0000              add [bx+si],al
0000264A  0000              add [bx+si],al
0000264C  0000              add [bx+si],al
0000264E  0000              add [bx+si],al
00002650  0000              add [bx+si],al
00002652  0000              add [bx+si],al
00002654  0000              add [bx+si],al
00002656  0000              add [bx+si],al
00002658  0000              add [bx+si],al
0000265A  0000              add [bx+si],al
0000265C  0000              add [bx+si],al
0000265E  0000              add [bx+si],al
00002660  0000              add [bx+si],al
00002662  0000              add [bx+si],al
00002664  0000              add [bx+si],al
00002666  0000              add [bx+si],al
00002668  0000              add [bx+si],al
0000266A  0000              add [bx+si],al
0000266C  0000              add [bx+si],al
0000266E  0000              add [bx+si],al
00002670  0000              add [bx+si],al
00002672  0000              add [bx+si],al
00002674  0000              add [bx+si],al
00002676  0000              add [bx+si],al
00002678  0000              add [bx+si],al
0000267A  0000              add [bx+si],al
0000267C  0000              add [bx+si],al
0000267E  0000              add [bx+si],al
00002680  0000              add [bx+si],al
00002682  0000              add [bx+si],al
00002684  0000              add [bx+si],al
00002686  0000              add [bx+si],al
00002688  0000              add [bx+si],al
0000268A  0000              add [bx+si],al
0000268C  0000              add [bx+si],al
0000268E  0000              add [bx+si],al
00002690  0000              add [bx+si],al
00002692  0000              add [bx+si],al
00002694  0000              add [bx+si],al
00002696  0000              add [bx+si],al
00002698  0000              add [bx+si],al
0000269A  0000              add [bx+si],al
0000269C  0000              add [bx+si],al
0000269E  0000              add [bx+si],al
000026A0  0000              add [bx+si],al
000026A2  0000              add [bx+si],al
000026A4  0000              add [bx+si],al
000026A6  0000              add [bx+si],al
000026A8  0000              add [bx+si],al
000026AA  0000              add [bx+si],al
000026AC  0000              add [bx+si],al
000026AE  0000              add [bx+si],al
000026B0  0000              add [bx+si],al
000026B2  0000              add [bx+si],al
000026B4  0000              add [bx+si],al
000026B6  0000              add [bx+si],al
000026B8  0000              add [bx+si],al
000026BA  0000              add [bx+si],al
000026BC  0000              add [bx+si],al
000026BE  0000              add [bx+si],al
000026C0  0000              add [bx+si],al
000026C2  0000              add [bx+si],al
000026C4  0000              add [bx+si],al
000026C6  0000              add [bx+si],al
000026C8  0000              add [bx+si],al
000026CA  0000              add [bx+si],al
000026CC  0000              add [bx+si],al
000026CE  0000              add [bx+si],al
000026D0  0000              add [bx+si],al
000026D2  0000              add [bx+si],al
000026D4  0000              add [bx+si],al
000026D6  0000              add [bx+si],al
000026D8  0000              add [bx+si],al
000026DA  0000              add [bx+si],al
000026DC  0000              add [bx+si],al
000026DE  0000              add [bx+si],al
000026E0  0000              add [bx+si],al
000026E2  0000              add [bx+si],al
000026E4  0000              add [bx+si],al
000026E6  0000              add [bx+si],al
000026E8  0000              add [bx+si],al
000026EA  0000              add [bx+si],al
000026EC  0000              add [bx+si],al
000026EE  0000              add [bx+si],al
000026F0  0000              add [bx+si],al
000026F2  0000              add [bx+si],al
000026F4  0000              add [bx+si],al
000026F6  0000              add [bx+si],al
000026F8  0000              add [bx+si],al
000026FA  0000              add [bx+si],al
000026FC  0000              add [bx+si],al
000026FE  0000              add [bx+si],al
00002700  0000              add [bx+si],al
00002702  0000              add [bx+si],al
00002704  0000              add [bx+si],al
00002706  0000              add [bx+si],al
00002708  0000              add [bx+si],al
0000270A  0000              add [bx+si],al
0000270C  0000              add [bx+si],al
0000270E  0000              add [bx+si],al
00002710  0000              add [bx+si],al
00002712  0000              add [bx+si],al
00002714  0000              add [bx+si],al
00002716  0000              add [bx+si],al
00002718  0000              add [bx+si],al
0000271A  0000              add [bx+si],al
0000271C  0000              add [bx+si],al
0000271E  0000              add [bx+si],al
00002720  0000              add [bx+si],al
00002722  0000              add [bx+si],al
00002724  0000              add [bx+si],al
00002726  0000              add [bx+si],al
00002728  0000              add [bx+si],al
0000272A  0000              add [bx+si],al
0000272C  0000              add [bx+si],al
0000272E  0000              add [bx+si],al
00002730  0000              add [bx+si],al
00002732  0000              add [bx+si],al
00002734  0000              add [bx+si],al
00002736  0000              add [bx+si],al
00002738  0000              add [bx+si],al
0000273A  0000              add [bx+si],al
0000273C  0000              add [bx+si],al
0000273E  0000              add [bx+si],al
00002740  0000              add [bx+si],al
00002742  0000              add [bx+si],al
00002744  0000              add [bx+si],al
00002746  0000              add [bx+si],al
00002748  0000              add [bx+si],al
0000274A  0000              add [bx+si],al
0000274C  0000              add [bx+si],al
0000274E  0000              add [bx+si],al
00002750  0000              add [bx+si],al
00002752  0000              add [bx+si],al
00002754  0000              add [bx+si],al
00002756  0000              add [bx+si],al
00002758  0000              add [bx+si],al
0000275A  0000              add [bx+si],al
0000275C  0000              add [bx+si],al
0000275E  0000              add [bx+si],al
00002760  0000              add [bx+si],al
00002762  0000              add [bx+si],al
00002764  0000              add [bx+si],al
00002766  0000              add [bx+si],al
00002768  0000              add [bx+si],al
0000276A  0000              add [bx+si],al
0000276C  0000              add [bx+si],al
0000276E  0000              add [bx+si],al
00002770  0000              add [bx+si],al
00002772  0000              add [bx+si],al
00002774  0000              add [bx+si],al
00002776  0000              add [bx+si],al
00002778  0000              add [bx+si],al
0000277A  0000              add [bx+si],al
0000277C  0000              add [bx+si],al
0000277E  0000              add [bx+si],al
00002780  0000              add [bx+si],al
00002782  0000              add [bx+si],al
00002784  0000              add [bx+si],al
00002786  0000              add [bx+si],al
00002788  0000              add [bx+si],al
0000278A  0000              add [bx+si],al
0000278C  0000              add [bx+si],al
0000278E  0000              add [bx+si],al
00002790  0000              add [bx+si],al
00002792  0000              add [bx+si],al
00002794  0000              add [bx+si],al
00002796  0000              add [bx+si],al
00002798  0000              add [bx+si],al
0000279A  0000              add [bx+si],al
0000279C  0000              add [bx+si],al
0000279E  0000              add [bx+si],al
000027A0  0000              add [bx+si],al
000027A2  0000              add [bx+si],al
000027A4  0000              add [bx+si],al
000027A6  0000              add [bx+si],al
000027A8  0000              add [bx+si],al
000027AA  0000              add [bx+si],al
000027AC  0000              add [bx+si],al
000027AE  0000              add [bx+si],al
000027B0  0000              add [bx+si],al
000027B2  0000              add [bx+si],al
000027B4  0000              add [bx+si],al
000027B6  0000              add [bx+si],al
000027B8  0000              add [bx+si],al
000027BA  0000              add [bx+si],al
000027BC  0000              add [bx+si],al
000027BE  0000              add [bx+si],al
000027C0  0000              add [bx+si],al
000027C2  0000              add [bx+si],al
000027C4  0000              add [bx+si],al
000027C6  0000              add [bx+si],al
000027C8  0000              add [bx+si],al
000027CA  0000              add [bx+si],al
000027CC  0000              add [bx+si],al
000027CE  0000              add [bx+si],al
000027D0  0000              add [bx+si],al
000027D2  0000              add [bx+si],al
000027D4  0000              add [bx+si],al
000027D6  0000              add [bx+si],al
000027D8  0000              add [bx+si],al
000027DA  0000              add [bx+si],al
000027DC  0000              add [bx+si],al
000027DE  0000              add [bx+si],al
000027E0  0000              add [bx+si],al
000027E2  0000              add [bx+si],al
000027E4  0000              add [bx+si],al
000027E6  0000              add [bx+si],al
000027E8  0000              add [bx+si],al
000027EA  0000              add [bx+si],al
000027EC  0000              add [bx+si],al
000027EE  0000              add [bx+si],al
000027F0  0000              add [bx+si],al
000027F2  0000              add [bx+si],al
000027F4  0000              add [bx+si],al
000027F6  0000              add [bx+si],al
000027F8  0000              add [bx+si],al
000027FA  0000              add [bx+si],al
000027FC  0000              add [bx+si],al
000027FE  0000              add [bx+si],al
00002800  0000              add [bx+si],al
00002802  0000              add [bx+si],al
00002804  0000              add [bx+si],al
00002806  0000              add [bx+si],al
00002808  0000              add [bx+si],al
0000280A  0000              add [bx+si],al
0000280C  0000              add [bx+si],al
0000280E  0000              add [bx+si],al
00002810  0000              add [bx+si],al
00002812  0000              add [bx+si],al
00002814  0000              add [bx+si],al
00002816  0000              add [bx+si],al
00002818  0000              add [bx+si],al
0000281A  0000              add [bx+si],al
0000281C  0000              add [bx+si],al
0000281E  0000              add [bx+si],al
00002820  0000              add [bx+si],al
00002822  0000              add [bx+si],al
00002824  0000              add [bx+si],al
00002826  0000              add [bx+si],al
00002828  0000              add [bx+si],al
0000282A  0000              add [bx+si],al
0000282C  0000              add [bx+si],al
0000282E  0000              add [bx+si],al
00002830  0000              add [bx+si],al
00002832  0000              add [bx+si],al
00002834  0000              add [bx+si],al
00002836  0000              add [bx+si],al
00002838  0000              add [bx+si],al
0000283A  0000              add [bx+si],al
0000283C  0000              add [bx+si],al
0000283E  0000              add [bx+si],al
00002840  0000              add [bx+si],al
00002842  0000              add [bx+si],al
00002844  0000              add [bx+si],al
00002846  0000              add [bx+si],al
00002848  0000              add [bx+si],al
0000284A  0000              add [bx+si],al
0000284C  0000              add [bx+si],al
0000284E  0000              add [bx+si],al
00002850  0000              add [bx+si],al
00002852  0000              add [bx+si],al
00002854  0000              add [bx+si],al
00002856  0000              add [bx+si],al
00002858  0000              add [bx+si],al
0000285A  0000              add [bx+si],al
0000285C  0000              add [bx+si],al
0000285E  0000              add [bx+si],al
00002860  0000              add [bx+si],al
00002862  0000              add [bx+si],al
00002864  0000              add [bx+si],al
00002866  0000              add [bx+si],al
00002868  0000              add [bx+si],al
0000286A  0000              add [bx+si],al
0000286C  0000              add [bx+si],al
0000286E  0000              add [bx+si],al
00002870  0000              add [bx+si],al
00002872  0000              add [bx+si],al
00002874  0000              add [bx+si],al
00002876  0000              add [bx+si],al
00002878  0000              add [bx+si],al
0000287A  0000              add [bx+si],al
0000287C  0000              add [bx+si],al
0000287E  0000              add [bx+si],al
00002880  0000              add [bx+si],al
00002882  0000              add [bx+si],al
00002884  0000              add [bx+si],al
00002886  0000              add [bx+si],al
00002888  0000              add [bx+si],al
0000288A  0000              add [bx+si],al
0000288C  0000              add [bx+si],al
0000288E  0000              add [bx+si],al
00002890  0000              add [bx+si],al
00002892  0000              add [bx+si],al
00002894  0000              add [bx+si],al
00002896  0000              add [bx+si],al
00002898  0000              add [bx+si],al
0000289A  0000              add [bx+si],al
0000289C  0000              add [bx+si],al
0000289E  0000              add [bx+si],al
000028A0  0000              add [bx+si],al
000028A2  0000              add [bx+si],al
000028A4  0000              add [bx+si],al
000028A6  0000              add [bx+si],al
000028A8  0000              add [bx+si],al
000028AA  0000              add [bx+si],al
000028AC  0000              add [bx+si],al
000028AE  0000              add [bx+si],al
000028B0  0000              add [bx+si],al
000028B2  0000              add [bx+si],al
000028B4  0000              add [bx+si],al
000028B6  0000              add [bx+si],al
000028B8  0000              add [bx+si],al
000028BA  0000              add [bx+si],al
000028BC  0000              add [bx+si],al
000028BE  0000              add [bx+si],al
000028C0  0000              add [bx+si],al
000028C2  0000              add [bx+si],al
000028C4  0000              add [bx+si],al
000028C6  0000              add [bx+si],al
000028C8  0000              add [bx+si],al
000028CA  0000              add [bx+si],al
000028CC  0000              add [bx+si],al
000028CE  0000              add [bx+si],al
000028D0  0000              add [bx+si],al
000028D2  0000              add [bx+si],al
000028D4  0000              add [bx+si],al
000028D6  0000              add [bx+si],al
000028D8  0000              add [bx+si],al
000028DA  0000              add [bx+si],al
000028DC  0000              add [bx+si],al
000028DE  0000              add [bx+si],al
000028E0  0000              add [bx+si],al
000028E2  0000              add [bx+si],al
000028E4  0000              add [bx+si],al
000028E6  0000              add [bx+si],al
000028E8  0000              add [bx+si],al
000028EA  0000              add [bx+si],al
000028EC  0000              add [bx+si],al
000028EE  0000              add [bx+si],al
000028F0  0000              add [bx+si],al
000028F2  0000              add [bx+si],al
000028F4  0000              add [bx+si],al
000028F6  0000              add [bx+si],al
000028F8  0000              add [bx+si],al
000028FA  0000              add [bx+si],al
000028FC  0000              add [bx+si],al
000028FE  0000              add [bx+si],al
00002900  0000              add [bx+si],al
00002902  0000              add [bx+si],al
00002904  0000              add [bx+si],al
00002906  0000              add [bx+si],al
00002908  0000              add [bx+si],al
0000290A  0000              add [bx+si],al
0000290C  0000              add [bx+si],al
0000290E  0000              add [bx+si],al
00002910  0000              add [bx+si],al
00002912  0000              add [bx+si],al
00002914  0000              add [bx+si],al
00002916  0000              add [bx+si],al
00002918  0000              add [bx+si],al
0000291A  0000              add [bx+si],al
0000291C  0000              add [bx+si],al
0000291E  0000              add [bx+si],al
00002920  0000              add [bx+si],al
00002922  0000              add [bx+si],al
00002924  0000              add [bx+si],al
00002926  0000              add [bx+si],al
00002928  0000              add [bx+si],al
0000292A  0000              add [bx+si],al
0000292C  0000              add [bx+si],al
0000292E  0000              add [bx+si],al
00002930  0000              add [bx+si],al
00002932  0000              add [bx+si],al
00002934  0000              add [bx+si],al
00002936  0000              add [bx+si],al
00002938  0000              add [bx+si],al
0000293A  0000              add [bx+si],al
0000293C  0000              add [bx+si],al
0000293E  0000              add [bx+si],al
00002940  0000              add [bx+si],al
00002942  0000              add [bx+si],al
00002944  0000              add [bx+si],al
00002946  0000              add [bx+si],al
00002948  0000              add [bx+si],al
0000294A  0000              add [bx+si],al
0000294C  0000              add [bx+si],al
0000294E  0000              add [bx+si],al
00002950  0000              add [bx+si],al
00002952  0000              add [bx+si],al
00002954  0000              add [bx+si],al
00002956  0000              add [bx+si],al
00002958  0000              add [bx+si],al
0000295A  0000              add [bx+si],al
0000295C  0000              add [bx+si],al
0000295E  0000              add [bx+si],al
00002960  0000              add [bx+si],al
00002962  0000              add [bx+si],al
00002964  0000              add [bx+si],al
00002966  0000              add [bx+si],al
00002968  0000              add [bx+si],al
0000296A  0000              add [bx+si],al
0000296C  0000              add [bx+si],al
0000296E  0000              add [bx+si],al
00002970  0000              add [bx+si],al
00002972  0000              add [bx+si],al
00002974  0000              add [bx+si],al
00002976  0000              add [bx+si],al
00002978  0000              add [bx+si],al
0000297A  0000              add [bx+si],al
0000297C  0000              add [bx+si],al
0000297E  0000              add [bx+si],al
00002980  0000              add [bx+si],al
00002982  0000              add [bx+si],al
00002984  0000              add [bx+si],al
00002986  0000              add [bx+si],al
00002988  0000              add [bx+si],al
0000298A  0000              add [bx+si],al
0000298C  0000              add [bx+si],al
0000298E  0000              add [bx+si],al
00002990  0000              add [bx+si],al
00002992  0000              add [bx+si],al
00002994  0000              add [bx+si],al
00002996  0000              add [bx+si],al
00002998  0000              add [bx+si],al
0000299A  0000              add [bx+si],al
0000299C  0000              add [bx+si],al
0000299E  0000              add [bx+si],al
000029A0  0000              add [bx+si],al
000029A2  0000              add [bx+si],al
000029A4  0000              add [bx+si],al
000029A6  0000              add [bx+si],al
000029A8  0000              add [bx+si],al
000029AA  0000              add [bx+si],al
000029AC  0000              add [bx+si],al
000029AE  0000              add [bx+si],al
000029B0  0000              add [bx+si],al
000029B2  0000              add [bx+si],al
000029B4  0000              add [bx+si],al
000029B6  0000              add [bx+si],al
000029B8  0000              add [bx+si],al
000029BA  0000              add [bx+si],al
000029BC  0000              add [bx+si],al
000029BE  0000              add [bx+si],al
000029C0  0000              add [bx+si],al
000029C2  0000              add [bx+si],al
000029C4  0000              add [bx+si],al
000029C6  0000              add [bx+si],al
000029C8  0000              add [bx+si],al
000029CA  0000              add [bx+si],al
000029CC  0000              add [bx+si],al
000029CE  0000              add [bx+si],al
000029D0  0000              add [bx+si],al
000029D2  0000              add [bx+si],al
000029D4  0000              add [bx+si],al
000029D6  0000              add [bx+si],al
000029D8  0000              add [bx+si],al
000029DA  0000              add [bx+si],al
000029DC  0000              add [bx+si],al
000029DE  0000              add [bx+si],al
000029E0  0000              add [bx+si],al
000029E2  0000              add [bx+si],al
000029E4  0000              add [bx+si],al
000029E6  0000              add [bx+si],al
000029E8  0000              add [bx+si],al
000029EA  0000              add [bx+si],al
000029EC  0000              add [bx+si],al
000029EE  0000              add [bx+si],al
000029F0  0000              add [bx+si],al
000029F2  0000              add [bx+si],al
000029F4  0000              add [bx+si],al
000029F6  0000              add [bx+si],al
000029F8  0000              add [bx+si],al
000029FA  0000              add [bx+si],al
000029FC  0000              add [bx+si],al
000029FE  0000              add [bx+si],al
00002A00  0000              add [bx+si],al
00002A02  0000              add [bx+si],al
00002A04  0000              add [bx+si],al
00002A06  0000              add [bx+si],al
00002A08  0000              add [bx+si],al
00002A0A  0000              add [bx+si],al
00002A0C  0000              add [bx+si],al
00002A0E  0000              add [bx+si],al
00002A10  0000              add [bx+si],al
00002A12  0000              add [bx+si],al
00002A14  0000              add [bx+si],al
00002A16  0000              add [bx+si],al
00002A18  0000              add [bx+si],al
00002A1A  0000              add [bx+si],al
00002A1C  0000              add [bx+si],al
00002A1E  0000              add [bx+si],al
00002A20  0000              add [bx+si],al
00002A22  0000              add [bx+si],al
00002A24  0000              add [bx+si],al
00002A26  0000              add [bx+si],al
00002A28  0000              add [bx+si],al
00002A2A  0000              add [bx+si],al
00002A2C  0000              add [bx+si],al
00002A2E  0000              add [bx+si],al
00002A30  0000              add [bx+si],al
00002A32  0000              add [bx+si],al
00002A34  0000              add [bx+si],al
00002A36  0000              add [bx+si],al
00002A38  0000              add [bx+si],al
00002A3A  0000              add [bx+si],al
00002A3C  0000              add [bx+si],al
00002A3E  0000              add [bx+si],al
00002A40  0000              add [bx+si],al
00002A42  0000              add [bx+si],al
00002A44  0000              add [bx+si],al
00002A46  0000              add [bx+si],al
00002A48  0000              add [bx+si],al
00002A4A  0000              add [bx+si],al
00002A4C  0000              add [bx+si],al
00002A4E  0000              add [bx+si],al
00002A50  0000              add [bx+si],al
00002A52  0000              add [bx+si],al
00002A54  0000              add [bx+si],al
00002A56  0000              add [bx+si],al
00002A58  0000              add [bx+si],al
00002A5A  0000              add [bx+si],al
00002A5C  0000              add [bx+si],al
00002A5E  0000              add [bx+si],al
00002A60  0000              add [bx+si],al
00002A62  0000              add [bx+si],al
00002A64  0000              add [bx+si],al
00002A66  0000              add [bx+si],al
00002A68  0000              add [bx+si],al
00002A6A  0000              add [bx+si],al
00002A6C  0000              add [bx+si],al
00002A6E  0000              add [bx+si],al
00002A70  0000              add [bx+si],al
00002A72  0000              add [bx+si],al
00002A74  0000              add [bx+si],al
00002A76  0000              add [bx+si],al
00002A78  0000              add [bx+si],al
00002A7A  0000              add [bx+si],al
00002A7C  0000              add [bx+si],al
00002A7E  0000              add [bx+si],al
00002A80  0000              add [bx+si],al
00002A82  0000              add [bx+si],al
00002A84  0000              add [bx+si],al
00002A86  0000              add [bx+si],al
00002A88  0000              add [bx+si],al
00002A8A  0000              add [bx+si],al
00002A8C  0000              add [bx+si],al
00002A8E  0000              add [bx+si],al
00002A90  0000              add [bx+si],al
00002A92  0000              add [bx+si],al
00002A94  0000              add [bx+si],al
00002A96  0000              add [bx+si],al
00002A98  0000              add [bx+si],al
00002A9A  0000              add [bx+si],al
00002A9C  0000              add [bx+si],al
00002A9E  0000              add [bx+si],al
00002AA0  0000              add [bx+si],al
00002AA2  0000              add [bx+si],al
00002AA4  0000              add [bx+si],al
00002AA6  0000              add [bx+si],al
00002AA8  0000              add [bx+si],al
00002AAA  0000              add [bx+si],al
00002AAC  0000              add [bx+si],al
00002AAE  0000              add [bx+si],al
00002AB0  0000              add [bx+si],al
00002AB2  0000              add [bx+si],al
00002AB4  0000              add [bx+si],al
00002AB6  0000              add [bx+si],al
00002AB8  0000              add [bx+si],al
00002ABA  0000              add [bx+si],al
00002ABC  0000              add [bx+si],al
00002ABE  0000              add [bx+si],al
00002AC0  0000              add [bx+si],al
00002AC2  0000              add [bx+si],al
00002AC4  0000              add [bx+si],al
00002AC6  0000              add [bx+si],al
00002AC8  0000              add [bx+si],al
00002ACA  0000              add [bx+si],al
00002ACC  0000              add [bx+si],al
00002ACE  0000              add [bx+si],al
00002AD0  0000              add [bx+si],al
00002AD2  0000              add [bx+si],al
00002AD4  0000              add [bx+si],al
00002AD6  0000              add [bx+si],al
00002AD8  0000              add [bx+si],al
00002ADA  0000              add [bx+si],al
00002ADC  0000              add [bx+si],al
00002ADE  0000              add [bx+si],al
00002AE0  0000              add [bx+si],al
00002AE2  0000              add [bx+si],al
00002AE4  0000              add [bx+si],al
00002AE6  0000              add [bx+si],al
00002AE8  0000              add [bx+si],al
00002AEA  0000              add [bx+si],al
00002AEC  0000              add [bx+si],al
00002AEE  0000              add [bx+si],al
00002AF0  0000              add [bx+si],al
00002AF2  0000              add [bx+si],al
00002AF4  0000              add [bx+si],al
00002AF6  0000              add [bx+si],al
00002AF8  0000              add [bx+si],al
00002AFA  0000              add [bx+si],al
00002AFC  0000              add [bx+si],al
00002AFE  0000              add [bx+si],al
00002B00  0000              add [bx+si],al
00002B02  0000              add [bx+si],al
00002B04  0000              add [bx+si],al
00002B06  0000              add [bx+si],al
00002B08  0000              add [bx+si],al
00002B0A  0000              add [bx+si],al
00002B0C  0000              add [bx+si],al
00002B0E  0000              add [bx+si],al
00002B10  0000              add [bx+si],al
00002B12  0000              add [bx+si],al
00002B14  0000              add [bx+si],al
00002B16  0000              add [bx+si],al
00002B18  0000              add [bx+si],al
00002B1A  0000              add [bx+si],al
00002B1C  0000              add [bx+si],al
00002B1E  0000              add [bx+si],al
00002B20  0000              add [bx+si],al
00002B22  0000              add [bx+si],al
00002B24  0000              add [bx+si],al
00002B26  0000              add [bx+si],al
00002B28  0000              add [bx+si],al
00002B2A  0000              add [bx+si],al
00002B2C  0000              add [bx+si],al
00002B2E  0000              add [bx+si],al
00002B30  0000              add [bx+si],al
00002B32  0000              add [bx+si],al
00002B34  0000              add [bx+si],al
00002B36  0000              add [bx+si],al
00002B38  0000              add [bx+si],al
00002B3A  0000              add [bx+si],al
00002B3C  0000              add [bx+si],al
00002B3E  0000              add [bx+si],al
00002B40  0000              add [bx+si],al
00002B42  0000              add [bx+si],al
00002B44  0000              add [bx+si],al
00002B46  0000              add [bx+si],al
00002B48  0000              add [bx+si],al
00002B4A  0000              add [bx+si],al
00002B4C  0000              add [bx+si],al
00002B4E  0000              add [bx+si],al
00002B50  0000              add [bx+si],al
00002B52  0000              add [bx+si],al
00002B54  0000              add [bx+si],al
00002B56  0000              add [bx+si],al
00002B58  0000              add [bx+si],al
00002B5A  0000              add [bx+si],al
00002B5C  0000              add [bx+si],al
00002B5E  0000              add [bx+si],al
00002B60  0000              add [bx+si],al
00002B62  0000              add [bx+si],al
00002B64  0000              add [bx+si],al
00002B66  0000              add [bx+si],al
00002B68  0000              add [bx+si],al
00002B6A  0000              add [bx+si],al
00002B6C  0000              add [bx+si],al
00002B6E  0000              add [bx+si],al
00002B70  0000              add [bx+si],al
00002B72  0000              add [bx+si],al
00002B74  0000              add [bx+si],al
00002B76  0000              add [bx+si],al
00002B78  0000              add [bx+si],al
00002B7A  0000              add [bx+si],al
00002B7C  0000              add [bx+si],al
00002B7E  0000              add [bx+si],al
00002B80  0000              add [bx+si],al
00002B82  0000              add [bx+si],al
00002B84  0000              add [bx+si],al
00002B86  0000              add [bx+si],al
00002B88  0000              add [bx+si],al
00002B8A  0000              add [bx+si],al
00002B8C  0000              add [bx+si],al
00002B8E  0000              add [bx+si],al
00002B90  0000              add [bx+si],al
00002B92  0000              add [bx+si],al
00002B94  0000              add [bx+si],al
00002B96  0000              add [bx+si],al
00002B98  0000              add [bx+si],al
00002B9A  0000              add [bx+si],al
00002B9C  0000              add [bx+si],al
00002B9E  0000              add [bx+si],al
00002BA0  0000              add [bx+si],al
00002BA2  0000              add [bx+si],al
00002BA4  0000              add [bx+si],al
00002BA6  0000              add [bx+si],al
00002BA8  0000              add [bx+si],al
00002BAA  0000              add [bx+si],al
00002BAC  0000              add [bx+si],al
00002BAE  0000              add [bx+si],al
00002BB0  0000              add [bx+si],al
00002BB2  0000              add [bx+si],al
00002BB4  0000              add [bx+si],al
00002BB6  0000              add [bx+si],al
00002BB8  0000              add [bx+si],al
00002BBA  0000              add [bx+si],al
00002BBC  0000              add [bx+si],al
00002BBE  0000              add [bx+si],al
00002BC0  0000              add [bx+si],al
00002BC2  0000              add [bx+si],al
00002BC4  0000              add [bx+si],al
00002BC6  0000              add [bx+si],al
00002BC8  0000              add [bx+si],al
00002BCA  0000              add [bx+si],al
00002BCC  0000              add [bx+si],al
00002BCE  0000              add [bx+si],al
00002BD0  0000              add [bx+si],al
00002BD2  0000              add [bx+si],al
00002BD4  0000              add [bx+si],al
00002BD6  0000              add [bx+si],al
00002BD8  0000              add [bx+si],al
00002BDA  0000              add [bx+si],al
00002BDC  0000              add [bx+si],al
00002BDE  0000              add [bx+si],al
00002BE0  0000              add [bx+si],al
00002BE2  0000              add [bx+si],al
00002BE4  0000              add [bx+si],al
00002BE6  0000              add [bx+si],al
00002BE8  0000              add [bx+si],al
00002BEA  0000              add [bx+si],al
00002BEC  0000              add [bx+si],al
00002BEE  0000              add [bx+si],al
00002BF0  0000              add [bx+si],al
00002BF2  0000              add [bx+si],al
00002BF4  0000              add [bx+si],al
00002BF6  0000              add [bx+si],al
00002BF8  0000              add [bx+si],al
00002BFA  0000              add [bx+si],al
00002BFC  0000              add [bx+si],al
00002BFE  0000              add [bx+si],al
00002C00  0000              add [bx+si],al
00002C02  0000              add [bx+si],al
00002C04  0000              add [bx+si],al
00002C06  0000              add [bx+si],al
00002C08  0000              add [bx+si],al
00002C0A  0000              add [bx+si],al
00002C0C  0000              add [bx+si],al
00002C0E  0000              add [bx+si],al
00002C10  0000              add [bx+si],al
00002C12  0000              add [bx+si],al
00002C14  0000              add [bx+si],al
00002C16  0000              add [bx+si],al
00002C18  0000              add [bx+si],al
00002C1A  0000              add [bx+si],al
00002C1C  0000              add [bx+si],al
00002C1E  0000              add [bx+si],al
00002C20  0000              add [bx+si],al
00002C22  0000              add [bx+si],al
00002C24  0000              add [bx+si],al
00002C26  0000              add [bx+si],al
00002C28  0000              add [bx+si],al
00002C2A  0000              add [bx+si],al
00002C2C  0000              add [bx+si],al
00002C2E  0000              add [bx+si],al
00002C30  0000              add [bx+si],al
00002C32  0000              add [bx+si],al
00002C34  0000              add [bx+si],al
00002C36  0000              add [bx+si],al
00002C38  0000              add [bx+si],al
00002C3A  0000              add [bx+si],al
00002C3C  0000              add [bx+si],al
00002C3E  0000              add [bx+si],al
00002C40  0000              add [bx+si],al
00002C42  0000              add [bx+si],al
00002C44  0000              add [bx+si],al
00002C46  0000              add [bx+si],al
00002C48  0000              add [bx+si],al
00002C4A  0000              add [bx+si],al
00002C4C  0000              add [bx+si],al
00002C4E  0000              add [bx+si],al
00002C50  0000              add [bx+si],al
00002C52  0000              add [bx+si],al
00002C54  0000              add [bx+si],al
00002C56  0000              add [bx+si],al
00002C58  0000              add [bx+si],al
00002C5A  0000              add [bx+si],al
00002C5C  0000              add [bx+si],al
00002C5E  0000              add [bx+si],al
00002C60  0000              add [bx+si],al
00002C62  0000              add [bx+si],al
00002C64  0000              add [bx+si],al
00002C66  0000              add [bx+si],al
00002C68  0000              add [bx+si],al
00002C6A  0000              add [bx+si],al
00002C6C  0000              add [bx+si],al
00002C6E  0000              add [bx+si],al
00002C70  0000              add [bx+si],al
00002C72  0000              add [bx+si],al
00002C74  0000              add [bx+si],al
00002C76  0000              add [bx+si],al
00002C78  0000              add [bx+si],al
00002C7A  0000              add [bx+si],al
00002C7C  0000              add [bx+si],al
00002C7E  0000              add [bx+si],al
00002C80  0000              add [bx+si],al
00002C82  0000              add [bx+si],al
00002C84  0000              add [bx+si],al
00002C86  0000              add [bx+si],al
00002C88  0000              add [bx+si],al
00002C8A  0000              add [bx+si],al
00002C8C  0000              add [bx+si],al
00002C8E  0000              add [bx+si],al
00002C90  0000              add [bx+si],al
00002C92  0000              add [bx+si],al
00002C94  0000              add [bx+si],al
00002C96  0000              add [bx+si],al
00002C98  0000              add [bx+si],al
00002C9A  0000              add [bx+si],al
00002C9C  0000              add [bx+si],al
00002C9E  0000              add [bx+si],al
00002CA0  0000              add [bx+si],al
00002CA2  0000              add [bx+si],al
00002CA4  0000              add [bx+si],al
00002CA6  0000              add [bx+si],al
00002CA8  0000              add [bx+si],al
00002CAA  0000              add [bx+si],al
00002CAC  0000              add [bx+si],al
00002CAE  0000              add [bx+si],al
00002CB0  0000              add [bx+si],al
00002CB2  0000              add [bx+si],al
00002CB4  0000              add [bx+si],al
00002CB6  0000              add [bx+si],al
00002CB8  0000              add [bx+si],al
00002CBA  0000              add [bx+si],al
00002CBC  0000              add [bx+si],al
00002CBE  0000              add [bx+si],al
00002CC0  0000              add [bx+si],al
00002CC2  0000              add [bx+si],al
00002CC4  0000              add [bx+si],al
00002CC6  0000              add [bx+si],al
00002CC8  0000              add [bx+si],al
00002CCA  0000              add [bx+si],al
00002CCC  0000              add [bx+si],al
00002CCE  0000              add [bx+si],al
00002CD0  0000              add [bx+si],al
00002CD2  0000              add [bx+si],al
00002CD4  0000              add [bx+si],al
00002CD6  0000              add [bx+si],al
00002CD8  0000              add [bx+si],al
00002CDA  0000              add [bx+si],al
00002CDC  0000              add [bx+si],al
00002CDE  0000              add [bx+si],al
00002CE0  0000              add [bx+si],al
00002CE2  0000              add [bx+si],al
00002CE4  0000              add [bx+si],al
00002CE6  0000              add [bx+si],al
00002CE8  0000              add [bx+si],al
00002CEA  0000              add [bx+si],al
00002CEC  0000              add [bx+si],al
00002CEE  0000              add [bx+si],al
00002CF0  0000              add [bx+si],al
00002CF2  0000              add [bx+si],al
00002CF4  0000              add [bx+si],al
00002CF6  0000              add [bx+si],al
00002CF8  0000              add [bx+si],al
00002CFA  0000              add [bx+si],al
00002CFC  0000              add [bx+si],al
00002CFE  0000              add [bx+si],al
00002D00  0000              add [bx+si],al
00002D02  0000              add [bx+si],al
00002D04  0000              add [bx+si],al
00002D06  0000              add [bx+si],al
00002D08  0000              add [bx+si],al
00002D0A  0000              add [bx+si],al
00002D0C  0000              add [bx+si],al
00002D0E  0000              add [bx+si],al
00002D10  0000              add [bx+si],al
00002D12  0000              add [bx+si],al
00002D14  0000              add [bx+si],al
00002D16  0000              add [bx+si],al
00002D18  0000              add [bx+si],al
00002D1A  0000              add [bx+si],al
00002D1C  0000              add [bx+si],al
00002D1E  0000              add [bx+si],al
00002D20  0000              add [bx+si],al
00002D22  0000              add [bx+si],al
00002D24  0000              add [bx+si],al
00002D26  0000              add [bx+si],al
00002D28  0000              add [bx+si],al
00002D2A  0000              add [bx+si],al
00002D2C  0000              add [bx+si],al
00002D2E  0000              add [bx+si],al
00002D30  0000              add [bx+si],al
00002D32  0000              add [bx+si],al
00002D34  0000              add [bx+si],al
00002D36  0000              add [bx+si],al
00002D38  0000              add [bx+si],al
00002D3A  0000              add [bx+si],al
00002D3C  0000              add [bx+si],al
00002D3E  0000              add [bx+si],al
00002D40  0000              add [bx+si],al
00002D42  0000              add [bx+si],al
00002D44  0000              add [bx+si],al
00002D46  0000              add [bx+si],al
00002D48  0000              add [bx+si],al
00002D4A  0000              add [bx+si],al
00002D4C  0000              add [bx+si],al
00002D4E  0000              add [bx+si],al
00002D50  0000              add [bx+si],al
00002D52  0000              add [bx+si],al
00002D54  0000              add [bx+si],al
00002D56  0000              add [bx+si],al
00002D58  0000              add [bx+si],al
00002D5A  0000              add [bx+si],al
00002D5C  0000              add [bx+si],al
00002D5E  0000              add [bx+si],al
00002D60  0000              add [bx+si],al
00002D62  0000              add [bx+si],al
00002D64  0000              add [bx+si],al
00002D66  0000              add [bx+si],al
00002D68  0000              add [bx+si],al
00002D6A  0000              add [bx+si],al
00002D6C  0000              add [bx+si],al
00002D6E  0000              add [bx+si],al
00002D70  0000              add [bx+si],al
00002D72  0000              add [bx+si],al
00002D74  0000              add [bx+si],al
00002D76  0000              add [bx+si],al
00002D78  0000              add [bx+si],al
00002D7A  0000              add [bx+si],al
00002D7C  0000              add [bx+si],al
00002D7E  0000              add [bx+si],al
00002D80  0000              add [bx+si],al
00002D82  0000              add [bx+si],al
00002D84  0000              add [bx+si],al
00002D86  0000              add [bx+si],al
00002D88  0000              add [bx+si],al
00002D8A  0000              add [bx+si],al
00002D8C  0000              add [bx+si],al
00002D8E  0000              add [bx+si],al
00002D90  0000              add [bx+si],al
00002D92  0000              add [bx+si],al
00002D94  0000              add [bx+si],al
00002D96  0000              add [bx+si],al
00002D98  0000              add [bx+si],al
00002D9A  0000              add [bx+si],al
00002D9C  0000              add [bx+si],al
00002D9E  0000              add [bx+si],al
00002DA0  0000              add [bx+si],al
00002DA2  0000              add [bx+si],al
00002DA4  0000              add [bx+si],al
00002DA6  0000              add [bx+si],al
00002DA8  0000              add [bx+si],al
00002DAA  0000              add [bx+si],al
00002DAC  0000              add [bx+si],al
00002DAE  0000              add [bx+si],al
00002DB0  0000              add [bx+si],al
00002DB2  0000              add [bx+si],al
00002DB4  0000              add [bx+si],al
00002DB6  0000              add [bx+si],al
00002DB8  0000              add [bx+si],al
00002DBA  0000              add [bx+si],al
00002DBC  0000              add [bx+si],al
00002DBE  0000              add [bx+si],al
00002DC0  0000              add [bx+si],al
00002DC2  0000              add [bx+si],al
00002DC4  0000              add [bx+si],al
00002DC6  0000              add [bx+si],al
00002DC8  0000              add [bx+si],al
00002DCA  0000              add [bx+si],al
00002DCC  0000              add [bx+si],al
00002DCE  0000              add [bx+si],al
00002DD0  1012              adc [bp+si],dl
00002DD2  0000              add [bx+si],al
00002DD4  0000              add [bx+si],al
00002DD6  0000              add [bx+si],al
00002DD8  C01100            rcl byte [bx+di],byte 0x0
00002DDB  0000              add [bx+si],al
00002DDD  0000              add [bx+si],al
00002DDF  0001              add [bx+di],al
00002DE1  0000              add [bx+si],al
00002DE3  0000              add [bx+si],al
00002DE5  0000              add [bx+si],al
00002DE7  00870000          add [bx+0x0],al
00002DEB  0000              add [bx+si],al
00002DED  0000              add [bx+si],al
00002DEF  000C              add [si],cl
00002DF1  0000              add [bx+si],al
00002DF3  0000              add [bx+si],al
00002DF5  0000              add [bx+si],al
00002DF7  0000              add [bx+si],al
00002DF9  1000              adc [bx+si],al
00002DFB  0000              add [bx+si],al
00002DFD  0000              add [bx+si],al
00002DFF  000D              add [di],cl
00002E01  0000              add [bx+si],al
00002E03  0000              add [bx+si],al
00002E05  0000              add [bx+si],al
00002E07  00701F            add [bx+si+0x1f],dh
00002E0A  0000              add [bx+si],al
00002E0C  0000              add [bx+si],al
00002E0E  0000              add [bx+si],al
00002E10  1900              sbb [bx+si],ax
00002E12  0000              add [bx+si],al
00002E14  0000              add [bx+si],al
00002E16  0000              add [bx+si],al
00002E18  D03D              sar byte [di],1
00002E1A  0000              add [bx+si],al
00002E1C  0000              add [bx+si],al
00002E1E  0000              add [bx+si],al
00002E20  1B00              sbb ax,[bx+si]
00002E22  0000              add [bx+si],al
00002E24  0000              add [bx+si],al
00002E26  0000              add [bx+si],al
00002E28  0800              or [bx+si],al
00002E2A  0000              add [bx+si],al
00002E2C  0000              add [bx+si],al
00002E2E  0000              add [bx+si],al
00002E30  1A00              sbb al,[bx+si]
00002E32  0000              add [bx+si],al
00002E34  0000              add [bx+si],al
00002E36  0000              add [bx+si],al
00002E38  D83D              fdivr dword [di]
00002E3A  0000              add [bx+si],al
00002E3C  0000              add [bx+si],al
00002E3E  0000              add [bx+si],al
00002E40  1C00              sbb al,0x0
00002E42  0000              add [bx+si],al
00002E44  0000              add [bx+si],al
00002E46  0000              add [bx+si],al
00002E48  0800              or [bx+si],al
00002E4A  0000              add [bx+si],al
00002E4C  0000              add [bx+si],al
00002E4E  0000              add [bx+si],al
00002E50  F5                cmc
00002E51  FE                db 0xfe
00002E52  FF6F00            jmp far [bx+0x0]
00002E55  0000              add [bx+si],al
00002E57  00C0              add al,al
00002E59  0300              add ax,[bx+si]
00002E5B  0000              add [bx+si],al
00002E5D  0000              add [bx+si],al
00002E5F  0005              add [di],al
00002E61  0000              add [bx+si],al
00002E63  0000              add [bx+si],al
00002E65  0000              add [bx+si],al
00002E67  00D8              add al,bl
00002E69  050000            add ax,0x0
00002E6C  0000              add [bx+si],al
00002E6E  0000              add [bx+si],al
00002E70  06                push es
00002E71  0000              add [bx+si],al
00002E73  0000              add [bx+si],al
00002E75  0000              add [bx+si],al
00002E77  00E0              add al,ah
00002E79  0300              add ax,[bx+si]
00002E7B  0000              add [bx+si],al
00002E7D  0000              add [bx+si],al
00002E7F  000A              add [bp+si],cl
00002E81  0000              add [bx+si],al
00002E83  0000              add [bx+si],al
00002E85  0000              add [bx+si],al
00002E87  0001              add [bx+di],al
00002E89  0100              add [bx+si],ax
00002E8B  0000              add [bx+si],al
00002E8D  0000              add [bx+si],al
00002E8F  000B              add [bp+di],cl
00002E91  0000              add [bx+si],al
00002E93  0000              add [bx+si],al
00002E95  0000              add [bx+si],al
00002E97  0018              add [bx+si],bl
00002E99  0000              add [bx+si],al
00002E9B  0000              add [bx+si],al
00002E9D  0000              add [bx+si],al
00002E9F  0015              add [di],dl
00002EA1  0000              add [bx+si],al
00002EA3  0000              add [bx+si],al
00002EA5  0000              add [bx+si],al
00002EA7  0000              add [bx+si],al
00002EA9  0000              add [bx+si],al
00002EAB  0000              add [bx+si],al
00002EAD  0000              add [bx+si],al
00002EAF  0003              add [bp+di],al
00002EB1  0000              add [bx+si],al
00002EB3  0000              add [bx+si],al
00002EB5  0000              add [bx+si],al
00002EB7  00E8              add al,ch
00002EB9  3F                aas
00002EBA  0000              add [bx+si],al
00002EBC  0000              add [bx+si],al
00002EBE  0000              add [bx+si],al
00002EC0  0200              add al,[bx+si]
00002EC2  0000              add [bx+si],al
00002EC4  0000              add [bx+si],al
00002EC6  0000              add [bx+si],al
00002EC8  680100            push word 0x1
00002ECB  0000              add [bx+si],al
00002ECD  0000              add [bx+si],al
00002ECF  0014              add [si],dl
00002ED1  0000              add [bx+si],al
00002ED3  0000              add [bx+si],al
00002ED5  0000              add [bx+si],al
00002ED7  0007              add [bx],al
00002ED9  0000              add [bx+si],al
00002EDB  0000              add [bx+si],al
00002EDD  0000              add [bx+si],al
00002EDF  0017              add [bx],dl
00002EE1  0000              add [bx+si],al
00002EE3  0000              add [bx+si],al
00002EE5  0000              add [bx+si],al
00002EE7  0018              add [bx+si],bl
00002EE9  0800              or [bx+si],al
00002EEB  0000              add [bx+si],al
00002EED  0000              add [bx+si],al
00002EEF  0007              add [bx],al
00002EF1  0000              add [bx+si],al
00002EF3  0000              add [bx+si],al
00002EF5  0000              add [bx+si],al
00002EF7  005807            add [bx+si+0x7],bl
00002EFA  0000              add [bx+si],al
00002EFC  0000              add [bx+si],al
00002EFE  0000              add [bx+si],al
00002F00  0800              or [bx+si],al
00002F02  0000              add [bx+si],al
00002F04  0000              add [bx+si],al
00002F06  0000              add [bx+si],al
00002F08  C00000            rol byte [bx+si],byte 0x0
00002F0B  0000              add [bx+si],al
00002F0D  0000              add [bx+si],al
00002F0F  0009              add [bx+di],cl
00002F11  0000              add [bx+si],al
00002F13  0000              add [bx+si],al
00002F15  0000              add [bx+si],al
00002F17  0018              add [bx+si],bl
00002F19  0000              add [bx+si],al
00002F1B  0000              add [bx+si],al
00002F1D  0000              add [bx+si],al
00002F1F  00FB              add bl,bh
00002F21  FF                db 0xff
00002F22  FF6F00            jmp far [bx+0x0]
00002F25  0000              add [bx+si],al
00002F27  0000              add [bx+si],al
00002F29  0000              add [bx+si],al
00002F2B  0800              or [bx+si],al
00002F2D  0000              add [bx+si],al
00002F2F  00FE              add dh,bh
00002F31  FF                db 0xff
00002F32  FF6F00            jmp far [bx+0x0]
00002F35  0000              add [bx+si],al
00002F37  0008              add [bx+si],cl
00002F39  07                pop es
00002F3A  0000              add [bx+si],al
00002F3C  0000              add [bx+si],al
00002F3E  0000              add [bx+si],al
00002F40  FF                db 0xff
00002F41  FF                db 0xff
00002F42  FF6F00            jmp far [bx+0x0]
00002F45  0000              add [bx+si],al
00002F47  0001              add [bx+di],al
00002F49  0000              add [bx+si],al
00002F4B  0000              add [bx+si],al
00002F4D  0000              add [bx+si],al
00002F4F  00F0              add al,dh
00002F51  FF                db 0xff
00002F52  FF6F00            jmp far [bx+0x0]
00002F55  0000              add [bx+si],al
00002F57  00DA              add dl,bl
00002F59  06                push es
00002F5A  0000              add [bx+si],al
00002F5C  0000              add [bx+si],al
00002F5E  0000              add [bx+si],al
00002F60  F9                stc
00002F61  FF                db 0xff
00002F62  FF6F00            jmp far [bx+0x0]
00002F65  0000              add [bx+si],al
00002F67  0003              add [bp+di],al
00002F69  0000              add [bx+si],al
00002F6B  0000              add [bx+si],al
00002F6D  0000              add [bx+si],al
00002F6F  0000              add [bx+si],al
00002F71  0000              add [bx+si],al
00002F73  0000              add [bx+si],al
00002F75  0000              add [bx+si],al
00002F77  0000              add [bx+si],al
00002F79  0000              add [bx+si],al
00002F7B  0000              add [bx+si],al
00002F7D  0000              add [bx+si],al
00002F7F  0000              add [bx+si],al
00002F81  0000              add [bx+si],al
00002F83  0000              add [bx+si],al
00002F85  0000              add [bx+si],al
00002F87  0000              add [bx+si],al
00002F89  0000              add [bx+si],al
00002F8B  0000              add [bx+si],al
00002F8D  0000              add [bx+si],al
00002F8F  0000              add [bx+si],al
00002F91  0000              add [bx+si],al
00002F93  0000              add [bx+si],al
00002F95  0000              add [bx+si],al
00002F97  0000              add [bx+si],al
00002F99  0000              add [bx+si],al
00002F9B  0000              add [bx+si],al
00002F9D  0000              add [bx+si],al
00002F9F  0000              add [bx+si],al
00002FA1  0000              add [bx+si],al
00002FA3  0000              add [bx+si],al
00002FA5  0000              add [bx+si],al
00002FA7  0000              add [bx+si],al
00002FA9  0000              add [bx+si],al
00002FAB  0000              add [bx+si],al
00002FAD  0000              add [bx+si],al
00002FAF  0000              add [bx+si],al
00002FB1  0000              add [bx+si],al
00002FB3  0000              add [bx+si],al
00002FB5  0000              add [bx+si],al
00002FB7  0000              add [bx+si],al
00002FB9  0000              add [bx+si],al
00002FBB  0000              add [bx+si],al
00002FBD  0000              add [bx+si],al
00002FBF  0000              add [bx+si],al
00002FC1  0000              add [bx+si],al
00002FC3  0000              add [bx+si],al
00002FC5  0000              add [bx+si],al
00002FC7  0000              add [bx+si],al
00002FC9  0000              add [bx+si],al
00002FCB  0000              add [bx+si],al
00002FCD  0000              add [bx+si],al
00002FCF  0000              add [bx+si],al
00002FD1  0000              add [bx+si],al
00002FD3  0000              add [bx+si],al
00002FD5  0000              add [bx+si],al
00002FD7  0000              add [bx+si],al
00002FD9  0000              add [bx+si],al
00002FDB  0000              add [bx+si],al
00002FDD  0000              add [bx+si],al
00002FDF  0000              add [bx+si],al
00002FE1  0000              add [bx+si],al
00002FE3  0000              add [bx+si],al
00002FE5  0000              add [bx+si],al
00002FE7  00E0              add al,ah
00002FE9  3D0000            cmp ax,0x0
00002FEC  0000              add [bx+si],al
00002FEE  0000              add [bx+si],al
00002FF0  0000              add [bx+si],al
00002FF2  0000              add [bx+si],al
00002FF4  0000              add [bx+si],al
00002FF6  0000              add [bx+si],al
00002FF8  0000              add [bx+si],al
00002FFA  0000              add [bx+si],al
00002FFC  0000              add [bx+si],al
00002FFE  0000              add [bx+si],al
00003000  361000            adc [ss:bx+si],al
00003003  0000              add [bx+si],al
00003005  0000              add [bx+si],al
00003007  004610            add [bp+0x10],al
0000300A  0000              add [bx+si],al
0000300C  0000              add [bx+si],al
0000300E  0000              add [bx+si],al
00003010  56                push si
00003011  1000              adc [bx+si],al
00003013  0000              add [bx+si],al
00003015  0000              add [bx+si],al
00003017  006610            add [bp+0x10],ah
0000301A  0000              add [bx+si],al
0000301C  0000              add [bx+si],al
0000301E  0000              add [bx+si],al
00003020  7610              jna 0x3032
00003022  0000              add [bx+si],al
00003024  0000              add [bx+si],al
00003026  0000              add [bx+si],al
00003028  8610              xchg dl,[bx+si]
0000302A  0000              add [bx+si],al
0000302C  0000              add [bx+si],al
0000302E  0000              add [bx+si],al
00003030  96                xchg ax,si
00003031  1000              adc [bx+si],al
00003033  0000              add [bx+si],al
00003035  0000              add [bx+si],al
00003037  00A61000          add [bp+0x10],ah
0000303B  0000              add [bx+si],al
0000303D  0000              add [bx+si],al
0000303F  00B61000          add [bp+0x10],dh
00003043  0000              add [bx+si],al
00003045  0000              add [bx+si],al
00003047  00C6              add dh,al
00003049  1000              adc [bx+si],al
0000304B  0000              add [bx+si],al
0000304D  0000              add [bx+si],al
0000304F  00D6              add dh,dl
00003051  1000              adc [bx+si],al
00003053  0000              add [bx+si],al
00003055  0000              add [bx+si],al
00003057  00E6              add dh,ah
00003059  1000              adc [bx+si],al
0000305B  0000              add [bx+si],al
0000305D  0000              add [bx+si],al
0000305F  00F6              add dh,dh
00003061  1000              adc [bx+si],al
00003063  0000              add [bx+si],al
00003065  0000              add [bx+si],al
00003067  00061100          add [0x11],al
0000306B  0000              add [bx+si],al
0000306D  0000              add [bx+si],al
0000306F  00161100          add [0x11],dl
00003073  0000              add [bx+si],al
00003075  0000              add [bx+si],al
00003077  0000              add [bx+si],al
00003079  0000              add [bx+si],al
0000307B  0000              add [bx+si],al
0000307D  0000              add [bx+si],al
0000307F  00804000          add [bx+si+0x40],al
00003083  0000              add [bx+si],al
00003085  0000              add [bx+si],al
00003087  004743            add [bx+0x43],al
0000308A  43                inc bx
0000308B  3A20              cmp ah,[bx+si]
0000308D  28474E            sub [bx+0x4e],al
00003090  55                push bp
00003091  2920              sub [bx+si],sp
00003093  3133              xor [bp+di],si
00003095  2E312E3120        xor [cs:0x2031],bp
0000309A  3230              xor dh,[bx+si]
0000309C  3233              xor dh,[bp+di]
0000309E  3034              xor [si],dh
000030A0  3239              xor bh,[bx+di]
000030A2  004743            add [bx+0x43],al
000030A5  43                inc bx
000030A6  3A20              cmp ah,[bx+si]
000030A8  28474E            sub [bx+0x4e],al
000030AB  55                push bp
000030AC  2920              sub [bx+si],sp
000030AE  3133              xor [bp+di],si
000030B0  2E312E3120        xor [cs:0x2031],bp
000030B5  3230              xor dh,[bx+si]
000030B7  3233              xor dh,[bp+di]
000030B9  3037              xor [bx],dh
000030BB  3134              xor [si],si
000030BD  002C              add [si],ch
000030BF  0000              add [bx+si],al
000030C1  0002              add [bp+si],al
000030C3  0000              add [bx+si],al
000030C5  0000              add [bx+si],al
000030C7  0008              add [bx+si],cl
000030C9  0000              add [bx+si],al
000030CB  0000              add [bx+si],al
000030CD  0019              add [bx+di],bl
000030CF  1200              adc al,[bx+si]
000030D1  0000              add [bx+si],al
000030D3  0000              add [bx+si],al
000030D5  00560D            add [bp+0xd],dl
000030D8  0000              add [bx+si],al
000030DA  0000              add [bx+si],al
000030DC  0000              add [bx+si],al
000030DE  0000              add [bx+si],al
000030E0  0000              add [bx+si],al
000030E2  0000              add [bx+si],al
000030E4  0000              add [bx+si],al
000030E6  0000              add [bx+si],al
000030E8  0000              add [bx+si],al
000030EA  0000              add [bx+si],al
000030EC  0000              add [bx+si],al
000030EE  350B00            xor ax,0xb
000030F1  0005              add [di],al
000030F3  0001              add [bx+di],al
000030F5  0800              or [bx+si],al
000030F7  0000              add [bx+si],al
000030F9  001F              add [bx],bl
000030FB  3C03              cmp al,0x3
000030FD  0000              add [bx+si],al
000030FF  1D1400            sbb ax,0x14
00003102  0000              add [bx+si],al
00003104  0000              add [bx+si],al
00003106  0000              add [bx+si],al
00003108  1912              sbb [bp+si],dx
0000310A  0000              add [bx+si],al
0000310C  0000              add [bx+si],al
0000310E  0000              add [bx+si],al
00003110  56                push si
00003111  0D0000            or ax,0x0
00003114  0000              add [bx+si],al
00003116  0000              add [bx+si],al
00003118  0000              add [bx+si],al
0000311A  0000              add [bx+si],al
0000311C  0923              or [bp+di],sp
0000311E  0000              add [bx+si],al
00003120  0002              add [bp+si],al
00003122  D6                salc
00003123  17                pop ss
00003124  3A00              cmp al,[bx+si]
00003126  0000              add [bx+si],al
00003128  0408              add al,0x8
0000312A  07                pop es
0000312B  59                pop cx
0000312C  0000              add [bx+si],al
0000312E  0004              add [si],al
00003130  0407              add al,0x7
00003132  5E                pop si
00003133  0000              add [bx+si],al
00003135  0020              add [bx+si],ah
00003137  0804              or [si],al
00003139  0108              add [bx+si],cx
0000313B  1B02              sbb ax,[bp+si]
0000313D  0000              add [bx+si],al
0000313F  0402              add al,0x2
00003141  07                pop es
00003142  8901              mov [bx+di],ax
00003144  0000              add [bx+si],al
00003146  0401              add al,0x1
00003148  06                push es
00003149  1D0200            sbb ax,0x2
0000314C  0004              add [si],al
0000314E  0205              add al,[di]
00003150  2902              sub [bp+si],ax
00003152  0000              add [bx+si],al
00003154  2104              and [si],ax
00003156  05696E            add ax,0x6e69
00003159  7400              jz 0x315b
0000315B  0408              add al,0x8
0000315D  057500            add ax,0x75
00003160  0000              add [bx+si],al
00003162  0900              or [bx+si],ax
00003164  0000              add [bx+si],al
00003166  0003              add [bp+di],al
00003168  98                cbw
00003169  196D00            sbb [di+0x0],bp
0000316C  0000              add [bx+si],al
0000316E  099D0200          or [di+0x2],bx
00003172  0003              add [bp+di],al
00003174  99                cwd
00003175  1B6D00            sbb bp,[di+0x0]
00003178  0000              add [bx+si],al
0000317A  09EA              or dx,bp
0000317C  0200              add al,[bx+si]
0000317E  0003              add [bp+di],al
00003180  A01A6D            mov al,[0x6d1a]
00003183  0000              add [bx+si],al
00003185  0002              add [bp+si],al
00003187  9D                popf
00003188  0000              add [bx+si],al
0000318A  0004              add [si],al
0000318C  01062402          add [0x224],ax
00003190  0000              add [bx+si],al
00003192  229D0000          and bl,[di+0x0]
00003196  0012              add [bp+si],dl
00003198  DE01              fiadd word [bx+di]
0000319A  0000              add [bx+si],al
0000319C  D804              fadd dword [si]
0000319E  3108              xor [bx+si],cx
000031A0  3002              xor [bp+si],al
000031A2  0000              add [bx+si],al
000031A4  01C6              add si,ax
000031A6  0000              add [bx+si],al
000031A8  0004              add [si],al
000031AA  3307              xor ax,[bx]
000031AC  660000            o32 add [bx+si],al
000031AF  0000              add [bx+si],al
000031B1  0108              add [bx+si],cx
000031B3  0000              add [bx+si],al
000031B5  0004              add [si],al
000031B7  3609980000        or [ss:bx+si+0x0],bx
000031BC  0008              add [bx+si],cl
000031BE  01A20000          add [bp+si+0x0],sp
000031C2  0004              add [si],al
000031C4  37                aaa
000031C5  09980000          or [bx+si+0x0],bx
000031C9  0010              add [bx+si],dl
000031CB  01A70200          add [bx+0x2],sp
000031CF  0004              add [si],al
000031D1  3809              cmp [bx+di],cl
000031D3  98                cbw
000031D4  0000              add [bx+si],al
000031D6  0018              add [bx+si],bl
000031D8  01E4              add sp,sp
000031DA  0300              add ax,[bx+si]
000031DC  0004              add [si],al
000031DE  3909              cmp [bx+di],cx
000031E0  98                cbw
000031E1  0000              add [bx+si],al
000031E3  0020              add [bx+si],ah
000031E5  017001            add [bx+si+0x1],si
000031E8  0000              add [bx+si],al
000031EA  043A              add al,0x3a
000031EC  09980000          or [bx+si+0x0],bx
000031F0  0028              add [bx+si],ch
000031F2  01BE0100          add [bp+0x1],di
000031F6  0004              add [si],al
000031F8  3B09              cmp cx,[bx+di]
000031FA  98                cbw
000031FB  0000              add [bx+si],al
000031FD  0030              add [bx+si],dh
000031FF  014700            add [bx+0x0],ax
00003202  0000              add [bx+si],al
00003204  043C              add al,0x3c
00003206  09980000          or [bx+si+0x0],bx
0000320A  0038              add [bx+si],bh
0000320C  01D7              add di,dx
0000320E  0000              add [bx+si],al
00003210  0004              add [si],al
00003212  3D0998            cmp ax,0x9809
00003215  0000              add [bx+si],al
00003217  004001            add [bx+si+0x1],al
0000321A  9C                pushf
0000321B  0100              add [bx+si],ax
0000321D  0004              add [si],al
0000321F  40                inc ax
00003220  09980000          or [bx+si+0x0],bx
00003224  004801            add [bx+si+0x1],cl
00003227  82                db 0x82
00003228  0300              add ax,[bx+si]
0000322A  0004              add [si],al
0000322C  41                inc cx
0000322D  09980000          or [bx+si+0x0],bx
00003231  005001            add [bx+si+0x1],dl
00003234  B502              mov ch,0x2
00003236  0000              add [bx+si],al
00003238  0442              add al,0x42
0000323A  09980000          or [bx+si+0x0],bx
0000323E  005801            add [bx+si+0x1],bl
00003241  0102              add [bp+si],ax
00003243  0000              add [bx+si],al
00003245  0444              add al,0x44
00003247  16                push ss
00003248  49                dec cx
00003249  0200              add al,[bx+si]
0000324B  006001            add [bx+si+0x1],ah
0000324E  1C00              sbb al,0x0
00003250  0000              add [bx+si],al
00003252  0446              add al,0x46
00003254  144E              adc al,0x4e
00003256  0200              add al,[bx+si]
00003258  006801            add [bx+si+0x1],ch
0000325B  93                xchg ax,bx
0000325C  0000              add [bx+si],al
0000325E  0004              add [si],al
00003260  48                dec ax
00003261  07                pop es
00003262  660000            o32 add [bx+si],al
00003265  007001            add [bx+si+0x1],dh
00003268  B001              mov al,0x1
0000326A  0000              add [bx+si],al
0000326C  0449              add al,0x49
0000326E  07                pop es
0000326F  660000            o32 add [bx+si],al
00003272  007401            add [si+0x1],dh
00003275  1101              adc [bx+di],ax
00003277  0000              add [bx+si],al
00003279  044A              add al,0x4a
0000327B  0B7400            or si,[si+0x0]
0000327E  0000              add [bx+si],al
00003280  7801              js 0x3283
00003282  E300              jcxz 0x3284
00003284  0000              add [bx+si],al
00003286  044D              add al,0x4d
00003288  125100            adc dl,[bx+di+0x0]
0000328B  0000              add [bx+si],al
0000328D  800141            add byte [bx+di],0x41
00003290  0200              add al,[bx+si]
00003292  0004              add [si],al
00003294  4E                dec si
00003295  0F5800            addps xmm0,oword [bx+si]
00003298  0000              add [bx+si],al
0000329A  82                db 0x82
0000329B  012A              add [bp+si],bp
0000329D  0000              add [bx+si],al
0000329F  0004              add [si],al
000032A1  4F                dec di
000032A2  085302            or [bp+di+0x2],dl
000032A5  0000              add [bx+si],al
000032A7  8301AA            add word [bx+di],byte -0x56
000032AA  0100              add [bx+si],ax
000032AC  0004              add [si],al
000032AE  51                push cx
000032AF  0F6302            packsswb mm0,[bp+si]
000032B2  0000              add [bx+si],al
000032B4  8801              mov [bx+di],al
000032B6  150100            adc ax,0x1
000032B9  0004              add [si],al
000032BB  59                pop cx
000032BC  0D8000            or ax,0x80
000032BF  0000              add [bx+si],al
000032C1  90                nop
000032C2  01F2              add dx,si
000032C4  0000              add [bx+si],al
000032C6  0004              add [si],al
000032C8  5B                pop bx
000032C9  17                pop ss
000032CA  6D                insw
000032CB  0200              add al,[bx+si]
000032CD  00980136          add [bx+si+0x3601],bl
000032D1  0200              add al,[bx+si]
000032D3  0004              add [si],al
000032D5  5C                pop sp
000032D6  197702            sbb [bx+0x2],si
000032D9  0000              add [bx+si],al
000032DB  A001B8            mov al,[0xb801]
000032DE  0300              add ax,[bx+si]
000032E0  0004              add [si],al
000032E2  5D                pop bp
000032E3  144E              adc al,0x4e
000032E5  0200              add al,[bx+si]
000032E7  00A8014D          add [bx+si+0x4d01],ch
000032EB  0100              add [bx+si],ax
000032ED  0004              add [si],al
000032EF  5E                pop si
000032F0  094800            or [bx+si+0x0],cx
000032F3  0000              add [bx+si],al
000032F5  B001              mov al,0x1
000032F7  E302              jcxz 0x32fb
000032F9  0000              add [bx+si],al
000032FB  045F              add al,0x5f
000032FD  0A2E0000          or ch,[0x0]
00003301  00B801B8          add [bx+si-0x47ff],bh
00003305  0100              add [bx+si],ax
00003307  0004              add [si],al
00003309  60                pusha
0000330A  07                pop es
0000330B  660000            o32 add [bx+si],al
0000330E  00C0              add al,al
00003310  01F3              add bx,si
00003312  0200              add al,[bx+si]
00003314  0004              add [si],al
00003316  6208              bound cx,[bx+si]
00003318  7C02              jl 0x331c
0000331A  0000              add [bx+si],al
0000331C  C400              les ax,[bx+si]
0000331E  09E2              or dx,sp
00003320  0100              add [bx+si],ax
00003322  0005              add [di],al
00003324  07                pop es
00003325  19A90000          sbb [bx+di+0x0],bp
00003329  0023              add [bp+di],ah
0000332B  D301              rol word [bx+di],cl
0000332D  0000              add [bx+si],al
0000332F  042B              add al,0x2b
00003331  0E                push cs
00003332  1338              adc di,[bx+si]
00003334  0100              add [bx+si],ax
00003336  0002              add [bp+si],al
00003338  44                inc sp
00003339  0200              add al,[bx+si]
0000333B  0002              add [bp+si],al
0000333D  A90000            test ax,0x0
00003340  0014              add [si],dl
00003342  9D                popf
00003343  0000              add [bx+si],al
00003345  006302            add [bp+di+0x2],ah
00003348  0000              add [bx+si],al
0000334A  153A00            adc ax,0x3a
0000334D  0000              add [bx+si],al
0000334F  0000              add [bx+si],al
00003351  023C              add bh,[si]
00003353  0200              add al,[bx+si]
00003355  0013              add [bp+di],dl
00003357  EF                out dx,ax
00003358  0000              add [bx+si],al
0000335A  0002              add [bp+si],al
0000335C  680200            push word 0x2
0000335F  0013              add [bp+di],dl
00003361  3302              xor ax,[bp+si]
00003363  0000              add [bx+si],al
00003365  027202            add dh,[bp+si+0x2]
00003368  0000              add [bx+si],al
0000336A  149D              adc al,0x9d
0000336C  0000              add [bx+si],al
0000336E  008C0200          add [si+0x2],cl
00003372  0015              add [di],dl
00003374  3A00              cmp al,[bx+si]
00003376  0000              add [bx+si],al
00003378  1300              adc ax,[bx+si]
0000337A  0230              add dh,[bx+si]
0000337C  0200              add al,[bx+si]
0000337E  001A              add [bp+si],bl
00003380  8C02              mov [bp+si],es
00003382  0000              add [bx+si],al
00003384  0408              add al,0x8
00003386  057000            add ax,0x70
00003389  0000              add [bx+si],al
0000338B  09EC              or sp,bp
0000338D  0200              add al,[bx+si]
0000338F  00060A12          add [0x120a],al
00003393  8C00              mov [bx+si],es
00003395  0000              add [bx+si],al
00003397  0408              add al,0x8
00003399  07                pop es
0000339A  54                push sp
0000339B  0000              add [bx+si],al
0000339D  0002              add [bp+si],al
0000339F  A4                movsb
000033A0  0000              add [bx+si],al
000033A2  001A              add [bp+si],bl
000033A4  B002              mov al,0x2
000033A6  0000              add [bx+si],al
000033A8  1231              adc dh,[bx+di]
000033AA  0100              add [bx+si],ax
000033AC  0028              add [bx+si],ch
000033AE  010C              add [si],cx
000033B0  1002              adc [bp+si],al
000033B2  0300              add ax,[bx+si]
000033B4  000F              add [bx],cl
000033B6  7000              jo 0x33b8
000033B8  0E                push cs
000033B9  1102              adc [bp+si],ax
000033BB  0300              add ax,[bx+si]
000033BD  0000              add [bx+si],al
000033BF  0F6300            packsswb mm0,[bx+si]
000033C2  0F1107            movups oword [bx],xmm0
000033C5  0300              add ax,[bx+si]
000033C7  0008              add [bx+si],cl
000033C9  017402            add [si+0x2],si
000033CC  0000              add [bx+si],al
000033CE  0111              add [bx+di],dx
000033D0  07                pop es
000033D1  17                pop ss
000033D2  0300              add ax,[bx+si]
000033D4  0018              add [bx+si],bl
000033D6  0F6B6579          packssdw mm4,[di+0x79]
000033DA  0013              add [bp+di],dl
000033DC  06                push es
000033DD  660000            o32 add [bx+si],al
000033E0  001C              add [si],bl
000033E2  017E01            add [bp+0x1],di
000033E5  0000              add [bx+si],al
000033E7  0114              add [si],dx
000033E9  08980000          or [bx+si+0x0],bl
000033ED  0020              add [bx+si],ah
000033EF  0002              add [bp+si],al
000033F1  BA0200            mov dx,0x2
000033F4  0014              add [si],dl
000033F6  0203              add al,[bp+di]
000033F8  0000              add [bx+si],al
000033FA  17                pop ss
000033FB  0300              add ax,[bx+si]
000033FD  0015              add [di],dl
000033FF  3A00              cmp al,[bx+si]
00003401  0000              add [bx+si],al
00003403  0100              add [bx+si],ax
00003405  0401              add al,0x1
00003407  0215              add dl,[di]
00003409  0200              add al,[bx+si]
0000340B  0009              add [bx+di],cl
0000340D  3101              xor [bx+di],ax
0000340F  0000              add [bx+si],al
00003411  0115              add [di],dx
00003413  03BA0200          add di,[bp+si+0x2]
00003417  0012              add [bp+si],dl
00003419  830100            add word [bx+di],byte +0x0
0000341C  0028              add [bx+si],ch
0000341E  0117              add [bx],dx
00003420  10850300          adc [di+0x3],al
00003424  0001              add [bx+di],al
00003426  680200            push word 0x2
00003429  0001              add [bx+di],al
0000342B  190A              sbb [bp+si],cx
0000342D  8503              test [bp+di],ax
0000342F  0000              add [bx+si],al
00003431  000F              add [bx],cl
00003433  6E                outsb
00003434  696C001A0A        imul bp,[si+0x0],word 0xa1a
00003439  8503              test [bp+di],ax
0000343B  0000              add [bx+si],al
0000343D  0801              or [bx+di],al
0000343F  B003              mov al,0x3
00003441  0000              add [bx+si],al
00003443  011C              add [si],bx
00003445  06                push es
00003446  660000            o32 add [bx+si],al
00003449  0010              add [bx+si],dl
0000344B  01B10300          add [bx+di+0x3],si
0000344F  0001              add [bx+di],al
00003451  1D0666            sbb ax,0x6606
00003454  0000              add [bx+si],al
00003456  0014              add [si],dl
00003458  01A00300          add [bx+si+0x3],sp
0000345C  0001              add [bx+di],al
0000345E  1E                push ds
0000345F  06                push es
00003460  660000            o32 add [bx+si],al
00003463  0018              add [bx+si],bl
00003465  017E01            add [bp+0x1],di
00003468  0000              add [bx+si],al
0000346A  0120              add [bx+si],sp
0000346C  08980000          or [bx+si+0x0],bl
00003470  0020              add [bx+si],ah
00003472  0002              add [bp+si],al
00003474  1E                push ds
00003475  0300              add ax,[bx+si]
00003477  0009              add [bx+di],cl
00003479  830100            add word [bx+di],byte +0x0
0000347C  0001              add [bx+di],al
0000347E  2103              and [bp+di],ax
00003480  2A03              sub al,[bp+di]
00003482  0000              add [bx+si],al
00003484  240B              and al,0xb
00003486  0200              add al,[bx+si]
00003488  0007              add [bx],al
0000348A  C6010C            mov byte [bx+di],0xc
0000348D  660000            o32 add [bx+si],al
00003490  00161002          add [0x210],dl
00003494  0000              add [bx+si],al
00003496  07                pop es
00003497  690C6600          imul cx,[si],word 0x66
0000349B  0000              add [bx+si],al
0000349D  B90300            mov cx,0x3
000034A0  0003              add [bp+di],al
000034A2  B002              mov al,0x2
000034A4  0000              add [bx+si],al
000034A6  0025              add [di],ah
000034A8  0A02              or al,[bp+si]
000034AA  0000              add [bx+si],al
000034AC  07                pop es
000034AD  C8010DCC          enter 0xd01,0xcc
000034B1  0300              add ax,[bx+si]
000034B3  0003              add [bp+di],al
000034B5  41                inc cx
000034B6  0000              add [bx+si],al
000034B8  0000              add [bx+si],al
000034BA  16                push ss
000034BB  E701              out 0x1,ax
000034BD  0000              add [bx+si],al
000034BF  084C0F            or [si+0xf],cl
000034C2  9D                popf
000034C3  0200              add al,[bx+si]
000034C5  00E2              add dl,ah
000034C7  0300              add ax,[bx+si]
000034C9  0003              add [bp+di],al
000034CB  E203              loop 0x34d0
000034CD  0000              add [bx+si],al
000034CF  0002              add [bp+si],al
000034D1  9D                popf
000034D2  0200              add al,[bx+si]
000034D4  00169602          add [0x296],dl
000034D8  0000              add [bx+si],al
000034DA  09B20C66          or [bp+si+0x660c],si
000034DE  0000              add [bx+si],al
000034E0  00FD              add ch,bh
000034E2  0300              add ax,[bx+si]
000034E4  0003              add [bp+di],al
000034E6  8C02              mov [bp+si],es
000034E8  0000              add [bx+si],al
000034EA  0010              add [bx+si],dl
000034EC  FB                sti
000034ED  0100              add [bx+si],ax
000034EF  0009              add [bx+di],cl
000034F1  0201              add al,[bx+di]
000034F3  0E                push cs
000034F4  8C02              mov [bp+si],es
000034F6  0000              add [bx+si],al
000034F8  1904              sbb [si],ax
000034FA  0000              add [bx+si],al
000034FC  03B50200          add si,[di+0x2]
00003500  0003              add [bp+di],al
00003502  B502              mov ch,0x2
00003504  0000              add [bx+si],al
00003506  0010              add [bx+si],dl
00003508  5A                pop dx
00003509  0100              add [bx+si],ax
0000350B  0009              add [bx+di],cl
0000350D  5E                pop si
0000350E  010C              add [si],cx
00003510  660000            o32 add [bx+si],al
00003513  00360400          add [0x4],dh
00003517  0003              add [bp+di],al
00003519  91                xchg ax,cx
0000351A  0200              add al,[bx+si]
0000351C  0003              add [bp+di],al
0000351E  B502              mov ch,0x2
00003520  0000              add [bx+si],al
00003522  1100              adc [bx+si],ax
00003524  260401            es add al,0x1
00003527  0000              add [bx+si],al
00003529  09B5010C          or [di+0xc01],si
0000352D  FB                sti
0000352E  0000              add [bx+si],al
00003530  006600            add [bp+0x0],ah
00003533  0000              add [bx+si],al
00003535  52                push dx
00003536  0400              add al,0x0
00003538  0003              add [bp+di],al
0000353A  B002              mov al,0x2
0000353C  0000              add [bx+si],al
0000353E  1100              adc [bx+si],ax
00003540  27                daa
00003541  50                push ax
00003542  0200              add al,[bx+si]
00003544  0007              add [bx],al
00003546  7D02              jnl 0x354a
00003548  0D6504            or ax,0x465
0000354B  0000              add [bx+si],al
0000354D  036600            add sp,[bp+0x0]
00003550  0000              add [bx+si],al
00003552  0010              add [bx+si],dl
00003554  5B                pop bx
00003555  0100              add [bx+si],ax
00003557  0009              add [bx+di],cl
00003559  64010C            add [fs:si],cx
0000355C  660000            o32 add [bx+si],al
0000355F  007D04            add [di+0x4],bh
00003562  0000              add [bx+si],al
00003564  03B00200          add si,[bx+si+0x2]
00003568  0011              add [bx+di],dl
0000356A  0010              add [bx+si],dl
0000356C  150000            adc ax,0x0
0000356F  0007              add [bx],al
00003571  2902              sub [bp+si],ax
00003573  0E                push cs
00003574  48                dec ax
00003575  0000              add [bx+si],al
00003577  00940400          add [si+0x4],dl
0000357B  0003              add [bp+di],al
0000357D  2E0000            add [cs:bx+si],al
00003580  0000              add [bx+si],al
00003582  17                pop ss
00003583  DF03              fild word [bp+di]
00003585  0000              add [bx+si],al
00003587  4A                dec dx
00003588  016600            add [bp+0x0],sp
0000358B  0000              add [bx+si],al
0000358D  FE                db 0xfe
0000358E  1D0000            sbb ax,0x0
00003591  0000              add [bx+si],al
00003593  0000              add [bx+si],al
00003595  7101              jno 0x3598
00003597  0000              add [bx+si],al
00003599  0000              add [bx+si],al
0000359B  0000              add [bx+si],al
0000359D  019CD205          add [si+0x5d2],bx
000035A1  0000              add [bx+si],al
000035A3  0B8A0200          or cx,[bp+si+0x2]
000035A7  004A01            add [bp+si+0x1],cl
000035AA  0E                push cs
000035AB  660000            o32 add [bx+si],al
000035AE  0003              add [bp+di],al
000035B0  91                xchg ax,cx
000035B1  AC                lodsb
000035B2  7F0B              jg 0x35bf
000035B4  0803              or [bp+di],al
000035B6  0000              add [bx+si],al
000035B8  4A                dec dx
000035B9  011B              add [bp+di],bx
000035BB  D205              rol byte [di],cl
000035BD  0000              add [bx+si],al
000035BF  0391A07F          add dx,[bx+di+0x7fa0]
000035C3  0C6E              or al,0x6e
000035C5  696C004E01        imul bp,[si+0x0],word 0x14e
000035CA  0A850300          or al,[di+0x3]
000035CE  0002              add [bp+si],al
000035D0  91                xchg ax,cx
000035D1  50                push ax
000035D2  08D2              or dl,dl
000035D4  0000              add [bx+si],al
000035D6  005201            add [bp+si+0x1],dl
000035D9  09D7              or di,dx
000035DB  050000            add ax,0x0
000035DE  0291581B          add dl,[bx+di+0x1b58]
000035E2  721E              jc 0x3602
000035E4  0000              add [bx+si],al
000035E6  0000              add [bx+si],al
000035E8  0000              add [bx+si],al
000035EA  8400              test [bx+si],al
000035EC  0000              add [bx+si],al
000035EE  0000              add [bx+si],al
000035F0  0000              add [bx+si],al
000035F2  47                inc di
000035F3  050000            add ax,0x0
000035F6  0C69              or al,0x69
000035F8  005401            add [si+0x1],dl
000035FB  0B6600            or sp,[bp+0x0]
000035FE  0000              add [bx+si],al
00003600  0391BC7F          add dx,[bx+di+0x7fbc]
00003604  0A7B1E            or bh,[bp+di+0x1e]
00003607  0000              add [bx+si],al
00003609  0000              add [bx+si],al
0000360B  0000              add [bx+si],al
0000360D  6D                insw
0000360E  0000              add [bx+si],al
00003610  0000              add [bx+si],al
00003612  0000              add [bx+si],al
00003614  000C              add [si],cl
00003616  6B657900          imul sp,[di+0x79],byte +0x0
0000361A  55                push bp
0000361B  0107              add [bx],ax
0000361D  660000            o32 add [bx+si],al
00003620  0002              add [bp+si],al
00003622  91                xchg ax,cx
00003623  4C                dec sp
00003624  087E01            or [bp+0x1],bh
00003627  0000              add [bx+si],al
00003629  56                push si
0000362A  0109              add [bx+di],cx
0000362C  98                cbw
0000362D  0000              add [bx+si],al
0000362F  0002              add [bp+si],al
00003631  91                xchg ax,cx
00003632  680000            push word 0x0
00003635  0AF6              or dh,dh
00003637  1E                push ds
00003638  0000              add [bx+si],al
0000363A  0000              add [bx+si],al
0000363C  0000              add [bx+si],al
0000363E  7200              jc 0x3640
00003640  0000              add [bx+si],al
00003642  0000              add [bx+si],al
00003644  0000              add [bx+si],al
00003646  08CC              or ah,cl
00003648  0200              add al,[bx+si]
0000364A  005B01            add [bp+di+0x1],bl
0000364D  07                pop es
0000364E  660000            o32 add [bx+si],al
00003651  0002              add [bp+si],al
00003653  91                xchg ax,cx
00003654  44                inc sp
00003655  28706F            sub [bx+si+0x6f],dh
00003658  7700              ja 0x365a
0000365A  0A00              or al,[bx+si]
0000365C  DC05              fadd qword [di]
0000365E  0000              add [bx+si],al
00003660  81050000          add word [di],0x0
00003664  03DC              add bx,sp
00003666  050000            add ax,0x0
00003669  03DC              add bx,sp
0000366B  050000            add ax,0x0
0000366E  000A              add [bp+si],cl
00003670  16                push ss
00003671  1F                pop ds
00003672  0000              add [bx+si],al
00003674  0000              add [bx+si],al
00003676  0000              add [bx+si],al
00003678  52                push dx
00003679  0000              add [bx+si],al
0000367B  0000              add [bx+si],al
0000367D  0000              add [bx+si],al
0000367F  000C              add [si],cl
00003681  69005D01          imul ax,[bx+si],word 0x15d
00003685  0B6600            or sp,[bp+0x0]
00003688  0000              add [bx+si],al
0000368A  0291400A          add dl,[bx+di+0xa40]
0000368E  1F                pop ds
0000368F  1F                pop ds
00003690  0000              add [bx+si],al
00003692  0000              add [bx+si],al
00003694  0000              add [bx+si],al
00003696  3D0000            cmp ax,0x0
00003699  0000              add [bx+si],al
0000369B  0000              add [bx+si],al
0000369D  000C              add [si],cl
0000369F  6B657900          imul sp,[di+0x79],byte +0x0
000036A3  5E                pop si
000036A4  0107              add [bx],ax
000036A6  660000            o32 add [bx+si],al
000036A9  0002              add [bp+si],al
000036AB  91                xchg ax,cx
000036AC  48                dec ax
000036AD  087E01            or [bp+0x1],bh
000036B0  0000              add [bx+si],al
000036B2  60                pusha
000036B3  0109              add [bx+di],cx
000036B5  98                cbw
000036B6  0000              add [bx+si],al
000036B8  0002              add [bp+si],al
000036BA  91                xchg ax,cx
000036BB  60                pusha
000036BC  0000              add [bx+si],al
000036BE  0000              add [bx+si],al
000036C0  02980000          add bl,[bx+si+0x0]
000036C4  0002              add [bp+si],al
000036C6  8A03              mov al,[bp+di]
000036C8  0000              add [bx+si],al
000036CA  0408              add al,0x8
000036CC  040A              add al,0xa
000036CE  0100              add [bx+si],ax
000036D0  001C              add [si],bl
000036D2  D302              rol word [bp+si],cl
000036D4  0000              add [bx+si],al
000036D6  3C01              cmp al,0x1
000036D8  2B1D              sub bx,[di]
000036DA  0000              add [bx+si],al
000036DC  0000              add [bx+si],al
000036DE  0000              add [bx+si],al
000036E0  D300              rol word [bx+si],cl
000036E2  0000              add [bx+si],al
000036E4  0000              add [bx+si],al
000036E6  0000              add [bx+si],al
000036E8  019C2B06          add [si+0x62b],bx
000036EC  0000              add [bx+si],al
000036EE  0E                push cs
000036EF  54                push sp
000036F0  003C              add [si],bh
000036F2  011D              add [di],bx
000036F4  D7                xlatb
000036F5  050000            add ax,0x0
000036F8  0291580B          add dl,[bx+di+0xb58]
000036FC  42                inc dx
000036FD  0000              add [bx+si],al
000036FF  003C              add [si],bh
00003701  01269800          add [0x98],sp
00003705  0000              add [bx+si],al
00003707  0291500C          add dl,[bx+di+0xc50]
0000370B  6664003E0108      o32 add [fs:0x801],bh
00003711  8C02              mov [bp+si],es
00003713  0000              add [bx+si],al
00003715  02916800          add dl,[bx+di+0x68]
00003719  1C62              sbb al,0x62
0000371B  0100              add [bx+si],ax
0000371D  0031              add [bx+di],dh
0000371F  015D1C            add [di+0x1c],bx
00003722  0000              add [bx+si],al
00003724  0000              add [bx+si],al
00003726  0000              add [bx+si],al
00003728  CE                into
00003729  0000              add [bx+si],al
0000372B  0000              add [bx+si],al
0000372D  0000              add [bx+si],al
0000372F  0001              add [bx+di],al
00003731  9C                pushf
00003732  82                db 0x82
00003733  06                push es
00003734  0000              add [bx+si],al
00003736  0E                push cs
00003737  54                push sp
00003738  0031              add [bx+di],dh
0000373A  0112              add [bp+si],dx
0000373C  D7                xlatb
0000373D  050000            add ax,0x0
00003740  0291580B          add dl,[bx+di+0xb58]
00003744  16                push ss
00003745  0300              add ax,[bx+si]
00003747  0031              add [bx+di],dh
00003749  011D              add [di],bx
0000374B  8503              test [bp+di],ax
0000374D  0000              add [bx+si],al
0000374F  0291500E          add dl,[bx+di+0xe50]
00003753  66640031          o32 add [fs:bx+di],dh
00003757  0129              add [bx+di],bp
00003759  8C02              mov [bp+si],es
0000375B  0000              add [bx+si],al
0000375D  02914808          add dl,[bx+di+0x848]
00003761  2F                das
00003762  0300              add ax,[bx+si]
00003764  0034              add [si],dh
00003766  0108              add [bx+si],cx
00003768  98                cbw
00003769  0000              add [bx+si],al
0000376B  0002              add [bp+si],al
0000376D  91                xchg ax,cx
0000376E  680017            push word 0x1700
00003771  3400              xor al,0x0
00003773  0000              add [bx+si],al
00003775  26016600          add [es:bp+0x0],sp
00003779  0000              add [bx+si],al
0000377B  B11B              mov cl,0x1b
0000377D  0000              add [bx+si],al
0000377F  0000              add [bx+si],al
00003781  0000              add [bx+si],al
00003783  AC                lodsb
00003784  0000              add [bx+si],al
00003786  0000              add [bx+si],al
00003788  0000              add [bx+si],al
0000378A  0001              add [bx+di],al
0000378C  9C                pushf
0000378D  D1060000          rol word [0x0],1
00003791  0E                push cs
00003792  7262              jc 0x37f6
00003794  7400              jz 0x3796
00003796  26011A            add [es:bp+si],bx
00003799  D7                xlatb
0000379A  050000            add ax,0x0
0000379D  02915808          add dl,[bx+di+0x858]
000037A1  C20200            ret 0x2
000037A4  0028              add [bx+si],ch
000037A6  01066600          add [0x66],ax
000037AA  0000              add [bx+si],al
000037AC  02916008          add dl,[bx+di+0x860]
000037B0  B003              mov al,0x3
000037B2  0000              add [bx+si],al
000037B4  2901              sub [bx+di],ax
000037B6  06                push es
000037B7  660000            o32 add [bx+si],al
000037BA  0002              add [bp+si],al
000037BC  91                xchg ax,cx
000037BD  640017            add [fs:bx],dl
000037C0  670100            add [eax],ax
000037C3  000D              add [di],cl
000037C5  016600            add [bp+0x0],sp
000037C8  0000              add [bx+si],al
000037CA  CA1A00            retf 0x1a
000037CD  0000              add [bx+si],al
000037CF  0000              add [bx+si],al
000037D1  00E7              add bh,ah
000037D3  0000              add [bx+si],al
000037D5  0000              add [bx+si],al
000037D7  0000              add [bx+si],al
000037D9  0001              add [bx+di],al
000037DB  9C                pushf
000037DC  3C07              cmp al,0x7
000037DE  0000              add [bx+si],al
000037E0  0E                push cs
000037E1  54                push sp
000037E2  000D              add [di],cl
000037E4  0115              add [di],dx
000037E6  D7                xlatb
000037E7  050000            add ax,0x0
000037EA  0291580B          add dl,[bx+di+0xb58]
000037EE  60                pusha
000037EF  0200              add al,[bx+si]
000037F1  000D              add [di],cl
000037F3  0120              add [bx+si],sp
000037F5  8503              test [bp+di],ax
000037F7  0000              add [bx+si],al
000037F9  0291500B          add dl,[bx+di+0xb50]
000037FD  C20200            ret 0x2
00003800  000D              add [di],cl
00003802  0133              add [bp+di],si
00003804  3C07              cmp al,0x7
00003806  0000              add [bx+si],al
00003808  02914808          add dl,[bx+di+0x848]
0000380C  7A02              jpe 0x3810
0000380E  0000              add [bx+si],al
00003810  1101              adc [bx+di],ax
00003812  06                push es
00003813  660000            o32 add [bx+si],al
00003816  0002              add [bp+si],al
00003818  91                xchg ax,cx
00003819  680882            push word 0x8208
0000381C  0200              add al,[bx+si]
0000381E  0012              add [bp+si],dl
00003820  01066600          add [0x66],ax
00003824  0000              add [bx+si],al
00003826  02916C00          add dl,[bx+di+0x6c]
0000382A  026600            add ah,[bp+0x0]
0000382D  0000              add [bx+si],al
0000382F  0DAF00            or ax,0xaf
00003832  0000              add [bx+si],al
00003834  DD24              frstor [si]
00003836  1900              sbb [bx+si],ax
00003838  0000              add [bx+si],al
0000383A  0000              add [bx+si],al
0000383C  00A60100          add [bp+0x1],ah
00003840  0000              add [bx+si],al
00003842  0000              add [bx+si],al
00003844  0001              add [bx+di],al
00003846  9C                pushf
00003847  F4                hlt
00003848  07                pop es
00003849  0000              add [bx+si],al
0000384B  055400            add ax,0x54
0000384E  DD24              frstor [si]
00003850  D7                xlatb
00003851  050000            add ax,0x0
00003854  0391B87F          add dx,[bx+di+0x7fb8]
00003858  06                push es
00003859  0D0300            or ax,0x3
0000385C  00DD              add ch,bl
0000385E  2F                das
0000385F  8503              test [bp+di],ax
00003861  0000              add [bx+si],al
00003863  0391B07F          add dx,[bx+di+0x7fb0]
00003867  07                pop es
00003868  7A00              jpe 0x386a
0000386A  DF0A              fisttp word [bp+si]
0000386C  8503              test [bp+di],ax
0000386E  0000              add [bx+si],al
00003870  02915018          add dl,[bx+di+0x1850]
00003874  CC                int3
00003875  0100              add [bx+si],ax
00003877  00EC              add ah,ch
00003879  8C19              mov [bx+di],ds
0000387B  0000              add [bx+si],al
0000387D  0000              add [bx+si],al
0000387F  0000              add [bx+si],al
00003881  189B0000          sbb [bp+di+0x0],bl
00003885  00F4              add ah,dh
00003887  CD19              int 0x19
00003889  0000              add [bx+si],al
0000388B  0000              add [bx+si],al
0000388D  0000              add [bx+si],al
0000388F  186D02            sbb [di+0x2],ch
00003892  0000              add [bx+si],al
00003894  FE                db 0xfe
00003895  381A              cmp [bp+si],bl
00003897  0000              add [bx+si],al
00003899  0000              add [bx+si],al
0000389B  0000              add [bx+si],al
0000389D  0A4119            or al,[bx+di+0x19]
000038A0  0000              add [bx+si],al
000038A2  0000              add [bx+si],al
000038A4  0000              add [bx+si],al
000038A6  3901              cmp [bx+di],ax
000038A8  0000              add [bx+si],al
000038AA  0000              add [bx+si],al
000038AC  0000              add [bx+si],al
000038AE  196B00            sbb [bp+di+0x0],bp
000038B1  0000              add [bx+si],al
000038B3  E617              out 0x17,al
000038B5  0300              add ax,[bx+si]
000038B7  0002              add [bp+si],al
000038B9  91                xchg ax,cx
000038BA  4F                dec di
000038BB  07                pop es
000038BC  7000              jo 0x38be
000038BE  E70B              out 0xb,ax
000038C0  8503              test [bp+di],ax
000038C2  0000              add [bx+si],al
000038C4  02915807          add dl,[bx+di+0x758]
000038C8  7070              jo 0x393a
000038CA  00E8              add al,ch
000038CC  0B850300          or ax,[di+0x3]
000038D0  0002              add [bp+si],al
000038D2  91                xchg ax,cx
000038D3  60                pusha
000038D4  07                pop es
000038D5  7500              jnz 0x38d7
000038D7  E90B85            jmp 0xbde5
000038DA  0300              add ax,[bx+si]
000038DC  0002              add [bp+si],al
000038DE  91                xchg ax,cx
000038DF  680000            push word 0x0
000038E2  1D4301            sbb ax,0x143
000038E5  0000              add [bx+si],al
000038E7  D811              fcom dword [bx+di]
000038E9  1900              sbb [bx+si],ax
000038EB  0000              add [bx+si],al
000038ED  0000              add [bx+si],al
000038EF  0013              add [bp+di],dl
000038F1  0000              add [bx+si],al
000038F3  0000              add [bx+si],al
000038F5  0000              add [bx+si],al
000038F7  0001              add [bx+di],al
000038F9  9C                pushf
000038FA  1F                pop ds
000038FB  0800              or [bx+si],al
000038FD  00061603          add [0x316],al
00003901  0000              add [bx+si],al
00003903  D818              fcomp dword [bx+si]
00003905  8503              test [bp+di],ax
00003907  0000              add [bx+si],al
00003909  02916800          add dl,[bx+di+0x68]
0000390D  1DC603            sbb ax,0x3c6
00003910  0000              add [bx+si],al
00003912  D3FE              sar si,cl
00003914  1800              sbb [bx+si],al
00003916  0000              add [bx+si],al
00003918  0000              add [bx+si],al
0000391A  0013              add [bp+di],dl
0000391C  0000              add [bx+si],al
0000391E  0000              add [bx+si],al
00003920  0000              add [bx+si],al
00003922  0001              add [bx+di],al
00003924  9C                pushf
00003925  4A                dec dx
00003926  0800              or [bx+si],al
00003928  00061603          add [0x316],al
0000392C  0000              add [bx+si],al
0000392E  D3168503          rcl word [0x385],cl
00003932  0000              add [bx+si],al
00003934  02916800          add dl,[bx+di+0x68]
00003938  1E                push ds
00003939  7403              jz 0x393e
0000393B  0000              add [bx+si],al
0000393D  CE                into
0000393E  17                pop ss
0000393F  0300              add ax,[bx+si]
00003941  00E2              add dl,ah
00003943  1800              sbb [bx+si],al
00003945  0000              add [bx+si],al
00003947  0000              add [bx+si],al
00003949  001C              add [si],bl
0000394B  0000              add [bx+si],al
0000394D  0000              add [bx+si],al
0000394F  0000              add [bx+si],al
00003951  0001              add [bx+di],al
00003953  9C                pushf
00003954  7908              jns 0x395e
00003956  0000              add [bx+si],al
00003958  06                push es
00003959  7C03              jl 0x395e
0000395B  0000              add [bx+si],al
0000395D  CE                into
0000395E  1C85              sbb al,0x85
00003960  0300              add ax,[bx+si]
00003962  0002              add [bp+si],al
00003964  91                xchg ax,cx
00003965  68000D            push word 0xd00
00003968  7E00              jng 0x396a
0000396A  0000              add [bx+si],al
0000396C  A14817            mov ax,[0x1748]
0000396F  0000              add [bx+si],al
00003971  0000              add [bx+si],al
00003973  0000              add [bx+si],al
00003975  9A01000000        call 0x0:0x1
0000397A  0000              add [bx+si],al
0000397C  0001              add [bx+di],al
0000397E  9C                pushf
0000397F  CF                iret
00003980  0800              or [bx+si],al
00003982  0005              add [di],al
00003984  54                push sp
00003985  00A122D7          add [bx+di-0x28de],ah
00003989  050000            add ax,0x0
0000398C  02914806          add dl,[bx+di+0x648]
00003990  92                xchg ax,dx
00003991  0300              add ax,[bx+si]
00003993  00A12D85          add [bx+di-0x7ad3],ah
00003997  0300              add ax,[bx+si]
00003999  0002              add [bp+si],al
0000399B  91                xchg ax,cx
0000399C  40                inc ax
0000399D  07                pop es
0000399E  7A00              jpe 0x39a0
000039A0  A30A85            mov [0x850a],ax
000039A3  0300              add ax,[bx+si]
000039A5  0002              add [bp+si],al
000039A7  91                xchg ax,cx
000039A8  60                pusha
000039A9  290C              sub [si],cx
000039AB  0000              add [bx+si],al
000039AD  0019              add [bx+di],bl
000039AF  27                daa
000039B0  0100              add [bx+si],ax
000039B2  00A89D00          add [bx+si+0x9d],ch
000039B6  0000              add [bx+si],al
000039B8  02915F00          add dl,[bx+di+0x5f]
000039BC  000D              add [di],cl
000039BE  8F02              pop word [bp+si]
000039C0  0000              add [bx+si],al
000039C2  7EDE              jng 0x39a2
000039C4  150000            adc ax,0x0
000039C7  0000              add [bx+si],al
000039C9  0000              add [bx+si],al
000039CB  6A01              push byte +0x1
000039CD  0000              add [bx+si],al
000039CF  0000              add [bx+si],al
000039D1  0000              add [bx+si],al
000039D3  019C1F09          add [si+0x91f],bx
000039D7  0000              add [bx+si],al
000039D9  055400            add ax,0x54
000039DC  7E14              jng 0x39f2
000039DE  D7                xlatb
000039DF  050000            add ax,0x0
000039E2  02915805          add dl,[bx+di+0x558]
000039E6  7000              jo 0x39e8
000039E8  7E1F              jng 0x3a09
000039EA  8503              test [bp+di],ax
000039EC  0000              add [bx+si],al
000039EE  02915005          add dl,[bx+di+0x550]
000039F2  646972007E27      imul si,[fs:bp+si+0x0],word 0x277e
000039F8  17                pop ss
000039F9  0300              add ax,[bx+si]
000039FB  0002              add [bp+si],al
000039FD  91                xchg ax,cx
000039FE  4C                dec sp
000039FF  07                pop es
00003A00  636800            arpl [bx+si+0x0],bp
00003A03  840A              test [bp+si],cl
00003A05  8503              test [bp+di],ax
00003A07  0000              add [bx+si],al
00003A09  02916800          add dl,[bx+di+0x68]
00003A0D  0D5502            or ax,0x255
00003A10  0000              add [bx+si],al
00003A12  678B1400          mov dx,[dword eax+eax]
00003A16  0000              add [bx+si],al
00003A18  0000              add [bx+si],al
00003A1A  005301            add [bp+di+0x1],dl
00003A1D  0000              add [bx+si],al
00003A1F  0000              add [bx+si],al
00003A21  0000              add [bx+si],al
00003A23  019CA109          add [si+0x9a1],bx
00003A27  0000              add [bx+si],al
00003A29  055400            add ax,0x54
00003A2C  6718D7            a32 sbb bh,dl
00003A2F  050000            add ax,0x0
00003A32  02914805          add dl,[bx+di+0x548]
00003A36  6E                outsb
00003A37  006723            add [bx+0x23],ah
00003A3A  8503              test [bp+di],ax
00003A3C  0000              add [bx+si],al
00003A3E  02914019          add dl,[bx+di+0x1940]
00003A42  FC                cld
00003A43  0200              add al,[bx+si]
00003A45  006A98            add [bp+si-0x68],ch
00003A48  0000              add [bx+si],al
00003A4A  0002              add [bp+si],al
00003A4C  91                xchg ax,cx
00003A4D  58                pop ax
00003A4E  1B15              sbb dx,[di]
00003A50  150000            adc ax,0x0
00003A53  0000              add [bx+si],al
00003A55  0000              add [bx+si],al
00003A57  50                push ax
00003A58  0000              add [bx+si],al
00003A5A  0000              add [bx+si],al
00003A5C  0000              add [bx+si],al
00003A5E  00820900          add [bp+si+0x9],al
00003A62  0007              add [bx],al
00003A64  6300              arpl [bx+si],ax
00003A66  710B              jno 0x3a73
00003A68  8503              test [bp+di],ax
00003A6A  0000              add [bx+si],al
00003A6C  02916000          add dl,[bx+di+0x60]
00003A70  0A8B1500          or cl,[bp+di+0x15]
00003A74  0000              add [bx+si],al
00003A76  0000              add [bx+si],al
00003A78  005000            add [bx+si+0x0],dl
00003A7B  0000              add [bx+si],al
00003A7D  0000              add [bx+si],al
00003A7F  0000              add [bx+si],al
00003A81  07                pop es
00003A82  6300              arpl [bx+si],ax
00003A84  780B              js 0x3a91
00003A86  8503              test [bp+di],ax
00003A88  0000              add [bx+si],al
00003A8A  02916800          add dl,[bx+di+0x68]
00003A8E  001EF303          add [0x3f3],bl
00003A92  0000              add [bx+si],al
00003A94  629D0000          bound bx,[di+0x0]
00003A98  006E14            add [bp+0x14],ch
00003A9B  0000              add [bx+si],al
00003A9D  0000              add [bx+si],al
00003A9F  0000              add [bx+si],al
00003AA1  1D0000            sbb ax,0x0
00003AA4  0000              add [bx+si],al
00003AA6  0000              add [bx+si],al
00003AA8  0001              add [bx+di],al
00003AAA  9C                pushf
00003AAB  D009              ror byte [bx+di],1
00003AAD  0000              add [bx+si],al
00003AAF  06                push es
00003AB0  7402              jz 0x3ab4
00003AB2  0000              add [bx+si],al
00003AB4  62161703          bound dx,[0x317]
00003AB8  0000              add [bx+si],al
00003ABA  02916C00          add dl,[bx+di+0x6c]
00003ABE  0DCE03            or ax,0x3ce
00003AC1  0000              add [bx+si],al
00003AC3  52                push dx
00003AC4  C9                leave
00003AC5  1300              adc ax,[bx+si]
00003AC7  0000              add [bx+si],al
00003AC9  0000              add [bx+si],al
00003ACB  00A50000          add [di+0x0],ah
00003ACF  0000              add [bx+si],al
00003AD1  0000              add [bx+si],al
00003AD3  0001              add [bx+di],al
00003AD5  9C                pushf
00003AD6  07                pop es
00003AD7  0A00              or al,[bx+si]
00003AD9  0005              add [di],al
00003ADB  54                push sp
00003ADC  00521E            add [bp+si+0x1e],dl
00003ADF  D7                xlatb
00003AE0  050000            add ax,0x0
00003AE3  02916806          add dl,[bx+di+0x668]
00003AE7  EC                in al,dx
00003AE8  0100              add [bx+si],ax
00003AEA  005229            add [bp+si+0x29],dl
00003AED  8503              test [bp+di],ax
00003AEF  0000              add [bx+si],al
00003AF1  02916000          add dl,[bx+di+0x60]
00003AF5  0D1B03            or ax,0x31b
00003AF8  0000              add [bx+si],al
00003AFA  3EFD              ds std
00003AFC  1200              adc al,[bx+si]
00003AFE  0000              add [bx+si],al
00003B00  0000              add [bx+si],al
00003B02  00CC              add ah,cl
00003B04  0000              add [bx+si],al
00003B06  0000              add [bx+si],al
00003B08  0000              add [bx+si],al
00003B0A  0001              add [bx+di],al
00003B0C  9C                pushf
00003B0D  8A0A              mov cl,[bp+si]
00003B0F  0000              add [bx+si],al
00003B11  055400            add ax,0x54
00003B14  3E21D7            ds and di,dx
00003B17  050000            add ax,0x0
00003B1A  02915806          add dl,[bx+di+0x658]
00003B1E  60                pusha
00003B1F  0200              add al,[bx+si]
00003B21  003E2C85          add [0x852c],bh
00003B25  0300              add ax,[bx+si]
00003B27  0002              add [bp+si],al
00003B29  91                xchg ax,cx
00003B2A  50                push ax
00003B2B  06                push es
00003B2C  EC                in al,dx
00003B2D  0100              add [bx+si],ax
00003B2F  003E4285          add [0x8542],bh
00003B33  0300              add ax,[bx+si]
00003B35  0002              add [bp+si],al
00003B37  91                xchg ax,cx
00003B38  48                dec ax
00003B39  07                pop es
00003B3A  7A00              jpe 0x3b3c
00003B3C  40                inc ax
00003B3D  0A850300          or al,[di+0x3]
00003B41  0002              add [bp+si],al
00003B43  91                xchg ax,cx
00003B44  682AAF            push word 0xaf2a
00003B47  0000              add [bx+si],al
00003B49  0001              add [bx+di],al
00003B4B  4F                dec di
00003B4C  026600            add ah,[bp+0x0]
00003B4F  0000              add [bx+si],al
00003B51  690A0000          imul cx,[bp+si],word 0x0
00003B55  1100              adc [bx+si],ax
00003B57  0A19              or bl,[bx+di]
00003B59  1300              adc ax,[bx+si]
00003B5B  0000              add [bx+si],al
00003B5D  0000              add [bx+si],al
00003B5F  00900000          add [bx+si+0x0],dl
00003B63  0000              add [bx+si],al
00003B65  0000              add [bx+si],al
00003B67  0007              add [bx],al
00003B69  646972004208      imul si,[fs:bp+si+0x0],word 0x842
00003B6F  17                pop ss
00003B70  0300              add ax,[bx+si]
00003B72  0002              add [bp+si],al
00003B74  91                xchg ax,cx
00003B75  670000            add [eax],al
00003B78  2BCD              sub cx,bp
00003B7A  0000              add [bx+si],al
00003B7C  0001              add [bx+di],al
00003B7E  3008              xor [bx+si],cl
00003B80  D7                xlatb
00003B81  050000            add ax,0x0
00003B84  95                xchg ax,bp
00003B85  1200              adc al,[bx+si]
00003B87  0000              add [bx+si],al
00003B89  0000              add [bx+si],al
00003B8B  006800            add [bx+si+0x0],ch
00003B8E  0000              add [bx+si],al
00003B90  0000              add [bx+si],al
00003B92  0000              add [bx+si],al
00003B94  019CD70A          add [si+0xad7],bx
00003B98  0000              add [bx+si],al
00003B9A  056E69            add ax,0x696e
00003B9D  6C                insb
00003B9E  0030              add [bx+si],dh
00003BA0  1A850300          sbb al,[di+0x3]
00003BA4  0002              add [bp+si],al
00003BA6  91                xchg ax,cx
00003BA7  58                pop ax
00003BA8  06                push es
00003BA9  7E01              jng 0x3bac
00003BAB  0000              add [bx+si],al
00003BAD  3025              xor [di],ah
00003BAF  98                cbw
00003BB0  0000              add [bx+si],al
00003BB2  0002              add [bp+si],al
00003BB4  91                xchg ax,cx
00003BB5  50                push ax
00003BB6  07                pop es
00003BB7  7262              jc 0x3c1b
00003BB9  7400              jz 0x3bbb
00003BBB  3209              xor cl,[bx+di]
00003BBD  D7                xlatb
00003BBE  050000            add ax,0x0
00003BC1  02916800          add dl,[bx+di+0x68]
00003BC5  2C1D              sub al,0x1d
00003BC7  0100              add [bx+si],ax
00003BC9  0001              add [bx+di],al
00003BCB  2309              and cx,[bx+di]
00003BCD  8503              test [bp+di],ax
00003BCF  0000              add [bx+si],al
00003BD1  1912              sbb [bp+si],dx
00003BD3  0000              add [bx+si],al
00003BD5  0000              add [bx+si],al
00003BD7  0000              add [bx+si],al
00003BD9  7C00              jl 0x3bdb
00003BDB  0000              add [bx+si],al
00003BDD  0000              add [bx+si],al
00003BDF  0000              add [bx+si],al
00003BE1  019C0554          add [si+0x5405],bx
00003BE5  0023              add [bp+di],ah
00003BE7  1AD7              sbb dl,bh
00003BE9  050000            add ax,0x0
00003BEC  02915806          add dl,[bx+di+0x658]
00003BF0  7402              jz 0x3bf4
00003BF2  0000              add [bx+si],al
00003BF4  2322              and sp,[bp+si]
00003BF6  17                pop ss
00003BF7  0300              add ax,[bx+si]
00003BF9  0002              add [bp+si],al
00003BFB  91                xchg ax,cx
00003BFC  54                push sp
00003BFD  056B65            add ax,0x656b
00003C00  7900              jns 0x3c02
00003C02  232D              and bp,[di]
00003C04  660000            o32 add [bx+si],al
00003C07  0002              add [bp+si],al
00003C09  91                xchg ax,cx
00003C0A  50                push ax
00003C0B  06                push es
00003C0C  7E01              jng 0x3c0f
00003C0E  0000              add [bx+si],al
00003C10  2338              and di,[bx+si]
00003C12  98                cbw
00003C13  0000              add [bx+si],al
00003C15  0002              add [bp+si],al
00003C17  91                xchg ax,cx
00003C18  48                dec ax
00003C19  07                pop es
00003C1A  6E                outsb
00003C1B  0025              add [di],ah
00003C1D  0A850300          or al,[di+0x3]
00003C21  0002              add [bp+si],al
00003C23  91                xchg ax,cx
00003C24  680000            push word 0x0
00003C27  010D              add [di],cx
00003C29  0003              add [bp+di],al
00003C2B  0E                push cs
00003C2C  3A0B              cmp cl,[bp+di]
00003C2E  3B0B              cmp cx,[bp+di]
00003C30  390B              cmp [bp+di],cx
00003C32  49                dec cx
00003C33  1338              adc di,[bx+si]
00003C35  0B00              or ax,[bx+si]
00003C37  0002              add [bp+si],al
00003C39  0F000B            str [bp+di]
00003C3C  2108              and [bx+si],cx
00003C3E  49                dec cx
00003C3F  1300              adc ax,[bx+si]
00003C41  0003              add [bp+di],al
00003C43  050049            add ax,0x4900
00003C46  1300              adc ax,[bx+si]
00003C48  0004              add [si],al
00003C4A  2400              and al,0x0
00003C4C  0B0B              or cx,[bp+di]
00003C4E  3E0B03            or ax,[ds:bp+di]
00003C51  0E                push cs
00003C52  0000              add [bx+si],al
00003C54  050500            add ax,0x5
00003C57  0308              add cx,[bx+si]
00003C59  3A21              cmp ah,[bx+di]
00003C5B  013B              add [bp+di],di
00003C5D  0B39              or di,[bx+di]
00003C5F  0B4913            or cx,[bx+di+0x13]
00003C62  0218              add bl,[bx+si]
00003C64  0000              add [bx+si],al
00003C66  06                push es
00003C67  050003            add ax,0x300
00003C6A  0E                push cs
00003C6B  3A21              cmp ah,[bx+di]
00003C6D  013B              add [bp+di],di
00003C6F  0B39              or di,[bx+di]
00003C71  0B4913            or cx,[bx+di+0x13]
00003C74  0218              add bl,[bx+si]
00003C76  0000              add [bx+si],al
00003C78  07                pop es
00003C79  3400              xor al,0x0
00003C7B  0308              add cx,[bx+si]
00003C7D  3A21              cmp ah,[bx+di]
00003C7F  013B              add [bp+di],di
00003C81  0B39              or di,[bx+di]
00003C83  0B4913            or cx,[bx+di+0x13]
00003C86  0218              add bl,[bx+si]
00003C88  0000              add [bx+si],al
00003C8A  0834              or [si],dh
00003C8C  0003              add [bp+di],al
00003C8E  0E                push cs
00003C8F  3A21              cmp ah,[bx+di]
00003C91  013B              add [bp+di],di
00003C93  05390B            add ax,0xb39
00003C96  49                dec cx
00003C97  1302              adc ax,[bp+si]
00003C99  1800              sbb [bx+si],al
00003C9B  0009              add [bx+di],cl
00003C9D  16                push ss
00003C9E  0003              add [bp+di],al
00003CA0  0E                push cs
00003CA1  3A0B              cmp cl,[bp+di]
00003CA3  3B0B              cmp cx,[bp+di]
00003CA5  390B              cmp [bp+di],cx
00003CA7  49                dec cx
00003CA8  1300              adc ax,[bx+si]
00003CAA  000A              add [bp+si],cl
00003CAC  0B01              or ax,[bx+di]
00003CAE  1101              adc [bx+di],ax
00003CB0  1207              adc al,[bx]
00003CB2  0000              add [bx+si],al
00003CB4  0B05              or ax,[di]
00003CB6  0003              add [bp+di],al
00003CB8  0E                push cs
00003CB9  3A21              cmp ah,[bx+di]
00003CBB  013B              add [bp+di],di
00003CBD  05390B            add ax,0xb39
00003CC0  49                dec cx
00003CC1  1302              adc ax,[bp+si]
00003CC3  1800              sbb [bx+si],al
00003CC5  000C              add [si],cl
00003CC7  3400              xor al,0x0
00003CC9  0308              add cx,[bx+si]
00003CCB  3A21              cmp ah,[bx+di]
00003CCD  013B              add [bp+di],di
00003CCF  05390B            add ax,0xb39
00003CD2  49                dec cx
00003CD3  1302              adc ax,[bp+si]
00003CD5  1800              sbb [bx+si],al
00003CD7  000D              add [di],cl
00003CD9  2E013F            add [cs:bx],di
00003CDC  1903              sbb [bp+di],ax
00003CDE  0E                push cs
00003CDF  3A21              cmp ah,[bx+di]
00003CE1  013B              add [bp+di],di
00003CE3  0B39              or di,[bx+di]
00003CE5  21062719          and [0x1927],ax
00003CE9  1101              adc [bx+di],ax
00003CEB  1207              adc al,[bx]
00003CED  40                inc ax
00003CEE  187C19            sbb [si+0x19],bh
00003CF1  0113              add [bp+di],dx
00003CF3  0000              add [bx+si],al
00003CF5  0E                push cs
00003CF6  050003            add ax,0x300
00003CF9  083A              or [bp+si],bh
00003CFB  2101              and [bx+di],ax
00003CFD  3B05              cmp ax,[di]
00003CFF  390B              cmp [bp+di],cx
00003D01  49                dec cx
00003D02  1302              adc ax,[bp+si]
00003D04  1800              sbb [bx+si],al
00003D06  000F              add [bx],cl
00003D08  0D0003            or ax,0x300
00003D0B  083A              or [bp+si],bh
00003D0D  2101              and [bx+di],ax
00003D0F  3B0B              cmp cx,[bp+di]
00003D11  390B              cmp [bp+di],cx
00003D13  49                dec cx
00003D14  1338              adc di,[bx+si]
00003D16  0B00              or ax,[bx+si]
00003D18  0010              add [bx+si],dl
00003D1A  2E013F            add [cs:bx],di
00003D1D  1903              sbb [bp+di],ax
00003D1F  0E                push cs
00003D20  3A0B              cmp cl,[bp+di]
00003D22  3B05              cmp ax,[di]
00003D24  390B              cmp [bp+di],cx
00003D26  27                daa
00003D27  194913            sbb [bx+di+0x13],cx
00003D2A  3C19              cmp al,0x19
00003D2C  0113              add [bp+di],dx
00003D2E  0000              add [bx+si],al
00003D30  1118              adc [bx+si],bx
00003D32  0000              add [bx+si],al
00003D34  0012              add [bp+si],dl
00003D36  1301              adc ax,[bx+di]
00003D38  030E0B0B          add cx,[0xb0b]
00003D3C  3A0B              cmp cl,[bp+di]
00003D3E  3B0B              cmp cx,[bp+di]
00003D40  390B              cmp [bp+di],cx
00003D42  0113              add [bp+di],dx
00003D44  0000              add [bx+si],al
00003D46  1313              adc dx,[bp+di]
00003D48  0003              add [bp+di],al
00003D4A  0E                push cs
00003D4B  3C19              cmp al,0x19
00003D4D  0000              add [bx+si],al
00003D4F  1401              adc al,0x1
00003D51  014913            add [bx+di+0x13],cx
00003D54  0113              add [bp+di],dx
00003D56  0000              add [bx+si],al
00003D58  152100            adc ax,0x21
00003D5B  49                dec cx
00003D5C  132F              adc bp,[bx]
00003D5E  0B00              or ax,[bx+si]
00003D60  00162E01          add [0x12e],dl
00003D64  3F                aas
00003D65  1903              sbb [bp+di],ax
00003D67  0E                push cs
00003D68  3A0B              cmp cl,[bp+di]
00003D6A  3B0B              cmp cx,[bp+di]
00003D6C  390B              cmp [bp+di],cx
00003D6E  27                daa
00003D6F  194913            sbb [bx+di+0x13],cx
00003D72  3C19              cmp al,0x19
00003D74  0113              add [bp+di],dx
00003D76  0000              add [bx+si],al
00003D78  17                pop ss
00003D79  2E013F            add [cs:bx],di
00003D7C  1903              sbb [bp+di],ax
00003D7E  0E                push cs
00003D7F  3A21              cmp ah,[bx+di]
00003D81  013B              add [bp+di],di
00003D83  053921            add ax,0x2139
00003D86  052719            add ax,0x1927
00003D89  49                dec cx
00003D8A  1311              adc dx,[bx+di]
00003D8C  0112              add [bp+si],dx
00003D8E  07                pop es
00003D8F  40                inc ax
00003D90  187C19            sbb [si+0x19],bh
00003D93  0113              add [bp+di],dx
00003D95  0000              add [bx+si],al
00003D97  180A              sbb [bp+si],cl
00003D99  0003              add [bp+di],al
00003D9B  0E                push cs
00003D9C  3A21              cmp ah,[bx+di]
00003D9E  013B              add [bp+di],di
00003DA0  0B39              or di,[bx+di]
00003DA2  2101              and [bx+di],ax
00003DA4  1101              adc [bx+di],ax
00003DA6  0000              add [bx+si],al
00003DA8  1934              sbb [si],si
00003DAA  0003              add [bp+di],al
00003DAC  0E                push cs
00003DAD  3A21              cmp ah,[bx+di]
00003DAF  013B              add [bp+di],di
00003DB1  0B39              or di,[bx+di]
00003DB3  2108              and [bx+si],cx
00003DB5  49                dec cx
00003DB6  1302              adc ax,[bp+si]
00003DB8  1800              sbb [bx+si],al
00003DBA  001A              add [bp+si],bl
00003DBC  37                aaa
00003DBD  004913            add [bx+di+0x13],cl
00003DC0  0000              add [bx+si],al
00003DC2  1B0B              sbb cx,[bp+di]
00003DC4  0111              add [bx+di],dx
00003DC6  0112              add [bp+si],dx
00003DC8  07                pop es
00003DC9  0113              add [bp+di],dx
00003DCB  0000              add [bx+si],al
00003DCD  1C2E              sbb al,0x2e
00003DCF  013F              add [bx],di
00003DD1  1903              sbb [bp+di],ax
00003DD3  0E                push cs
00003DD4  3A21              cmp ah,[bx+di]
00003DD6  013B              add [bp+di],di
00003DD8  053921            add ax,0x2139
00003DDB  06                push es
00003DDC  27                daa
00003DDD  1911              sbb [bx+di],dx
00003DDF  0112              add [bp+si],dx
00003DE1  07                pop es
00003DE2  40                inc ax
00003DE3  187C19            sbb [si+0x19],bh
00003DE6  0113              add [bp+di],dx
00003DE8  0000              add [bx+si],al
00003DEA  1D2E01            sbb ax,0x12e
00003DED  3F                aas
00003DEE  1903              sbb [bp+di],ax
00003DF0  0E                push cs
00003DF1  3A21              cmp ah,[bx+di]
00003DF3  013B              add [bp+di],di
00003DF5  0B39              or di,[bx+di]
00003DF7  21062719          and [0x1927],ax
00003DFB  1101              adc [bx+di],ax
00003DFD  1207              adc al,[bx]
00003DFF  40                inc ax
00003E00  187A19            sbb [bp+si+0x19],bh
00003E03  0113              add [bp+di],dx
00003E05  0000              add [bx+si],al
00003E07  1E                push ds
00003E08  2E013F            add [cs:bx],di
00003E0B  1903              sbb [bp+di],ax
00003E0D  0E                push cs
00003E0E  3A21              cmp ah,[bx+di]
00003E10  013B              add [bp+di],di
00003E12  0B39              or di,[bx+di]
00003E14  21062719          and [0x1927],ax
00003E18  49                dec cx
00003E19  1311              adc dx,[bx+di]
00003E1B  0112              add [bp+si],dx
00003E1D  07                pop es
00003E1E  40                inc ax
00003E1F  187A19            sbb [bp+si+0x19],bh
00003E22  0113              add [bp+di],dx
00003E24  0000              add [bx+si],al
00003E26  1F                pop ds
00003E27  1101              adc [bx+di],ax
00003E29  250E13            and ax,0x130e
00003E2C  0B03              or ax,[bp+di]
00003E2E  1F                pop ds
00003E2F  1B1F              sbb bx,[bx]
00003E31  1101              adc [bx+di],ax
00003E33  1207              adc al,[bx]
00003E35  1017              adc [bx],dl
00003E37  0000              add [bx+si],al
00003E39  200F              and [bx],cl
00003E3B  000B              add [bp+di],cl
00003E3D  0B00              or ax,[bx+si]
00003E3F  0021              add [bx+di],ah
00003E41  2400              and al,0x0
00003E43  0B0B              or cx,[bp+di]
00003E45  3E0B03            or ax,[ds:bp+di]
00003E48  0800              or [bx+si],al
00003E4A  0022              add [bp+si],ah
00003E4C  26004913          add [es:bx+di+0x13],cl
00003E50  0000              add [bx+si],al
00003E52  23160003          and dx,[0x300]
00003E56  0E                push cs
00003E57  3A0B              cmp cl,[bp+di]
00003E59  3B0B              cmp cx,[bp+di]
00003E5B  390B              cmp [bp+di],cx
00003E5D  0000              add [bx+si],al
00003E5F  242E              and al,0x2e
00003E61  003F              add [bx],bh
00003E63  1903              sbb [bp+di],ax
00003E65  0E                push cs
00003E66  3A0B              cmp cl,[bp+di]
00003E68  3B05              cmp ax,[di]
00003E6A  390B              cmp [bp+di],cx
00003E6C  27                daa
00003E6D  194913            sbb [bx+di+0x13],cx
00003E70  3C19              cmp al,0x19
00003E72  0000              add [bx+si],al
00003E74  252E01            and ax,0x12e
00003E77  3F                aas
00003E78  1903              sbb [bp+di],ax
00003E7A  0E                push cs
00003E7B  3A0B              cmp cl,[bp+di]
00003E7D  3B05              cmp ax,[di]
00003E7F  390B              cmp [bp+di],cx
00003E81  27                daa
00003E82  193C              sbb [si],di
00003E84  1901              sbb [bx+di],ax
00003E86  1300              adc ax,[bx+si]
00003E88  00262E01          add [0x12e],ah
00003E8C  3F                aas
00003E8D  1903              sbb [bp+di],ax
00003E8F  0E                push cs
00003E90  3A0B              cmp cl,[bp+di]
00003E92  3B05              cmp ax,[di]
00003E94  390B              cmp [bp+di],cx
00003E96  6E                outsb
00003E97  0E                push cs
00003E98  27                daa
00003E99  194913            sbb [bx+di+0x13],cx
00003E9C  3C19              cmp al,0x19
00003E9E  0113              add [bp+di],dx
00003EA0  0000              add [bx+si],al
00003EA2  27                daa
00003EA3  2E013F            add [cs:bx],di
00003EA6  1903              sbb [bp+di],ax
00003EA8  0E                push cs
00003EA9  3A0B              cmp cl,[bp+di]
00003EAB  3B05              cmp ax,[di]
00003EAD  390B              cmp [bp+di],cx
00003EAF  27                daa
00003EB0  19870119          sbb [bx+0x1901],ax
00003EB4  3C19              cmp al,0x19
00003EB6  0113              add [bp+di],dx
00003EB8  0000              add [bx+si],al
00003EBA  282E013F          sub [0x3f01],ch
00003EBE  1903              sbb [bp+di],ax
00003EC0  083A              or [bp+si],bh
00003EC2  0B3B              or di,[bp+di]
00003EC4  0B27              or sp,[bx]
00003EC6  194913            sbb [bx+di+0x13],cx
00003EC9  3C19              cmp al,0x19
00003ECB  0113              add [bp+di],dx
00003ECD  0000              add [bx+si],al
00003ECF  290B              sub [bp+di],cx
00003ED1  015517            add [di+0x17],dx
00003ED4  0000              add [bx+si],al
00003ED6  2A2E013F          sub ch,[0x3f01]
00003EDA  1903              sbb [bp+di],ax
00003EDC  0E                push cs
00003EDD  3A0B              cmp cl,[bp+di]
00003EDF  3B0B              cmp cx,[bp+di]
00003EE1  390B              cmp [bp+di],cx
00003EE3  49                dec cx
00003EE4  133C              adc di,[si]
00003EE6  1901              sbb [bx+di],ax
00003EE8  1300              adc ax,[bx+si]
00003EEA  002B              add [bp+di],ch
00003EEC  2E013F            add [cs:bx],di
00003EEF  1903              sbb [bp+di],ax
00003EF1  0E                push cs
00003EF2  3A0B              cmp cl,[bp+di]
00003EF4  3B0B              cmp cx,[bp+di]
00003EF6  390B              cmp [bp+di],cx
00003EF8  27                daa
00003EF9  194913            sbb [bx+di+0x13],cx
00003EFC  1101              adc [bx+di],ax
00003EFE  1207              adc al,[bx]
00003F00  40                inc ax
00003F01  187C19            sbb [si+0x19],bh
00003F04  0113              add [bp+di],dx
00003F06  0000              add [bx+si],al
00003F08  2C2E              sub al,0x2e
00003F0A  013F              add [bx],di
00003F0C  1903              sbb [bp+di],ax
00003F0E  0E                push cs
00003F0F  3A0B              cmp cl,[bp+di]
00003F11  3B0B              cmp cx,[bp+di]
00003F13  390B              cmp [bp+di],cx
00003F15  27                daa
00003F16  194913            sbb [bx+di+0x13],cx
00003F19  1101              adc [bx+di],ax
00003F1B  1207              adc al,[bx]
00003F1D  40                inc ax
00003F1E  187C19            sbb [si+0x19],bh
00003F21  0000              add [bx+si],al
00003F23  006D04            add [di+0x4],ch
00003F26  0000              add [bx+si],al
00003F28  050008            add ax,0x800
00003F2B  006700            add [bx+0x0],ah
00003F2E  0000              add [bx+si],al
00003F30  0101              add [bx+di],ax
00003F32  01FB              add bx,di
00003F34  0E                push cs
00003F35  0D0001            or ax,0x100
00003F38  0101              add [bx+di],ax
00003F3A  0100              add [bx+si],ax
00003F3C  0000              add [bx+si],al
00003F3E  0100              add [bx+si],ax
00003F40  0001              add [bx+di],al
00003F42  0101              add [bx+di],ax
00003F44  1F                pop ds
00003F45  050000            add ax,0x0
00003F48  0000              add [bx+si],al
00003F4A  1B00              sbb ax,[bx+si]
00003F4C  0000              add [bx+si],al
00003F4E  4B                dec bx
00003F4F  0000              add [bx+si],al
00003F51  005D00            add [di+0x0],bl
00003F54  0000              add [bx+si],al
00003F56  7500              jnz 0x3f58
00003F58  0000              add [bx+si],al
00003F5A  0201              add al,[bx+di]
00003F5C  1F                pop ds
00003F5D  020F              add cl,[bx]
00003F5F  0B14              or dx,[si]
00003F61  0000              add [bx+si],al
00003F63  0000              add [bx+si],al
00003F65  1400              adc al,0x0
00003F67  0000              add [bx+si],al
00003F69  00820000          add [bp+si+0x0],al
00003F6D  0001              add [bx+di],al
00003F6F  8B00              mov ax,[bx+si]
00003F71  0000              add [bx+si],al
00003F73  02930000          add dl,[bp+di+0x0]
00003F77  0003              add [bp+di],al
00003F79  9A00000003        call 0x300:0x0
00003F7E  A10000            mov ax,[0x0]
00003F81  0003              add [bp+di],al
00003F83  AA                stosb
00003F84  0000              add [bx+si],al
00003F86  0004              add [si],al
00003F88  B300              mov bl,0x0
00003F8A  0000              add [bx+si],al
00003F8C  04BA              add al,0xba
00003F8E  0000              add [bx+si],al
00003F90  0004              add [si],al
00003F92  C20000            ret 0x0
00003F95  0000              add [bx+si],al
00003F97  050100            add ax,0x1
00003F9A  0902              or [bp+si],ax
00003F9C  1912              sbb [bp+si],dx
00003F9E  0000              add [bx+si],al
00003FA0  0000              add [bx+si],al
00003FA2  0000              add [bx+si],al
00003FA4  0323              add sp,[bp+di]
00003FA6  0105              add [di],ax
00003FA8  0E                push cs
00003FA9  087505            or [di+0x5],dh
00003FAC  0BD7              or dx,di
00003FAE  0509AD            add ax,0xad09
00003FB1  050A9F            add ax,0x9f0a
00003FB4  BC0507            mov sp,0x705
00003FB7  82                db 0x82
00003FB8  050D75            add ax,0x750d
00003FBB  050A82            add ax,0x820a
00003FBE  050D83            add ax,0x830d
00003FC1  050A82            add ax,0x820a
00003FC4  050983            add ax,0x8309
00003FC7  05014B            add ax,0x4b01
00003FCA  3105              xor [di],ax
00003FCC  0FF305            psllq mm0,[di]
00003FCF  0BD7              or dx,di
00003FD1  050CBB            add ax,0xbb0c
00003FD4  BC050F            mov sp,0xf05
00003FD7  AD                lodsw
00003FD8  050EAD            add ax,0xad0e
00003FDB  0517AD            add ax,0xad17
00003FDE  0509AE            add ax,0xae09
00003FE1  05014B            add ax,0x4b01
00003FE4  3105              xor [di],ax
00003FE6  0A08              or cl,[bx+si]
00003FE8  3D051D            cmp ax,0x1d05
00003FEB  8405              test [di],al
00003FED  267405            es jz 0x3ff5
00003FF0  087405            or [si+0x5],dh
00003FF3  0B830515          or ax,[bp+di+0x1505]
00003FF7  F2050682          repne add ax,0x8206
00003FFB  050859            add ax,0x5908
00003FFE  050E4A            add ax,0x4a0e
00004001  0516F3            add ax,0xf316
00004004  051AAE            add ax,0xae1a
00004007  051C83            add ax,0x831c
0000400A  051982            add ax,0x8219
0000400D  051C83            add ax,0x831c
00004010  051982            add ax,0x8219
00004013  050483            add ax,0x8304
00004016  050B31            add ax,0x310b
00004019  05054A            add ax,0x4a05
0000401C  050D03            add ax,0x30d
0000401F  74F2              jz 0x4013
00004021  050203            add ax,0x302
00004024  0E                push cs
00004025  58                pop ax
00004026  050108            add ax,0x801
00004029  753F              jnz 0x406a
0000402B  0507F3            add ax,0xf307
0000402E  051274            add ax,0x7412
00004031  050582            add ax,0x8205
00004034  050B59            add ax,0x590b
00004037  0518AD            add ax,0xad18
0000403A  051582            add ax,0x8215
0000403D  051976            add ax,0x7619
00004040  051B83            add ax,0x831b
00004043  051882            add ax,0x8218
00004046  051B83            add ax,0x831b
00004049  051882            add ax,0x8218
0000404C  830503            add word [di],byte +0x3
0000404F  0814              or [si],dl
00004051  08920514          or [bp+si+0x1405],dl
00004055  7405              jz 0x405c
00004057  019F3F05          add [bx+0x53f],bx
0000405B  159100            adc ax,0x91
0000405E  0204              add al,[si]
00004060  01066658          add [0x5866],ax
00004064  0002              add [bp+si],al
00004066  0402              add al,0x2
00004068  2E050106          cs add ax,0x601
0000406C  59                pop cx
0000406D  3105              xor [di],ax
0000406F  02F3              add dh,bl
00004071  05089F            add ax,0x9f08
00004074  0502AD            add ax,0xad02
00004077  05339F            add ax,0x9f33
0000407A  052782            add ax,0x8227
0000407D  050200            add ax,0x2
00004080  0204              add al,[si]
00004082  019E050A          add [bp+0xa05],bx
00004086  0223              add ah,[bp+di]
00004088  1405              adc al,0x5
0000408A  158205            adc ax,0x582
0000408D  058205            add ax,0x582
00004090  1C00              sbb al,0x0
00004092  0204              add al,[si]
00004094  015805            add [bx+si+0x5],bx
00004097  0308              add cx,[bx+si]
00004099  1405              adc al,0x5
0000409B  0BE5              or sp,bp
0000409D  0534BB            add ax,0xbb34
000040A0  052882            add ax,0x8228
000040A3  050300            add ax,0x3
000040A6  0204              add al,[si]
000040A8  019E050A          add [bp+0xa05],bx
000040AC  0223              add ah,[bp+di]
000040AE  150516            adc ax,0x1605
000040B1  82                db 0x82
000040B2  050582            add ax,0x8205
000040B5  051D00            add ax,0x1d
000040B8  0204              add al,[si]
000040BA  015805            add [bx+si+0x5],bx
000040BD  02EA              add ch,dl
000040BF  05032A            add ax,0x2a03
000040C2  050BE5            add ax,0xe50b
000040C5  0534BB            add ax,0xbb34
000040C8  052882            add ax,0x8228
000040CB  050300            add ax,0x3
000040CE  0204              add al,[si]
000040D0  019E0502          add [bp+0x205],bx
000040D4  0223              add ah,[bp+di]
000040D6  1405              adc al,0x5
000040D8  0121              add [bx+di],sp
000040DA  3105              xor [di],ax
000040DC  0C08              or al,0x8
000040DE  4B                dec bx
000040DF  050582            add ax,0x8205
000040E2  050367            add ax,0x6703
000040E5  E505              in ax,0x5
000040E7  14A0              adc al,0xa0
000040E9  050A9E            add ax,0x9e0a
000040EC  050DF3            add ax,0xf30d
000040EF  050582            add ax,0x8205
000040F2  050367            add ax,0x6703
000040F5  E505              in ax,0x5
000040F7  0BA10508          or sp,[bx+di+0x805]
000040FB  7405              jz 0x4102
000040FD  0D7505            or ax,0x575
00004100  058205            add ax,0x582
00004103  0367E6            add sp,[bx-0x1a]
00004106  0507A1            add ax,0xa107
00004109  050F74            add ax,0x740f
0000410C  050582            add ax,0x8205
0000410F  050459            add ax,0x5904
00004112  050C74            add ax,0x740c
00004115  051274            add ax,0x7412
00004118  05164A            add ax,0x4a16
0000411B  051C9E            add ax,0x9e1c
0000411E  0507BD            add ax,0xbd07
00004121  0514AE            add ax,0xae14
00004124  05074A            add ax,0x4a07
00004127  05149E            add ax,0x9e14
0000412A  050DBA            add ax,0xba0d
0000412D  050BBC            add ax,0xbc0b
00004130  0515F2            add ax,0xf215
00004133  050582            add ax,0x8205
00004136  050859            add ax,0x5908
00004139  0511F2            add ax,0xf211
0000413C  050777            add ax,0x7707
0000413F  050D4A            add ax,0x4a0d
00004142  0502F3            add ax,0xf302
00004145  050121            add ax,0x2101
00004148  31F2              xor dx,si
0000414A  050AE5            add ax,0xe50a
0000414D  050783            add ax,0x8307
00004150  050359            add ax,0x5903
00004153  082F              or [bx],ch
00004155  083F              or [bx],bh
00004157  089F0506          or [bx+0x605],bl
0000415B  0235              add dh,[di]
0000415D  1405              adc al,0x5
0000415F  04AD              add al,0xad
00004161  050C5A            add ax,0x5a0c
00004164  051782            add ax,0x8217
00004167  050782            add ax,0x8207
0000416A  050559            add ax,0x5905
0000416D  E505              in ax,0x5
0000416F  06                push es
00004170  5A                pop dx
00004171  0504BB            add ax,0xbb04
00004174  050C5A            add ax,0x5a0c
00004177  051882            add ax,0x8218
0000417A  050782            add ax,0x8207
0000417D  050559            add ax,0x5905
00004180  E505              in ax,0x5
00004182  06                push es
00004183  3005              xor [di],al
00004185  04BB              add al,0xbb
00004187  3008              xor [bx+si],cl
00004189  7530              jnz 0x41bb
0000418B  087505            or [di+0x5],dh
0000418E  06                push es
0000418F  3005              xor [di],al
00004191  0483              add al,0x83
00004193  32E5              xor ah,ch
00004195  050E03            add ax,0x30e
00004198  5B                pop bx
00004199  2005              and [di],al
0000419B  0A820504          or al,[bp+si+0x405]
0000419F  0322              add sp,[bp+si]
000041A1  BA0501            mov dx,0x105
000041A4  26085B05          or [es:bp+di+0x5],bl
000041A8  0F830515          jnc near 0x56b1
000041AC  7405              jz 0x41b3
000041AE  194A05            sbb [bp+si+0x5],cx
000041B1  017531            add [di+0x31],si
000041B4  050E83            add ax,0x830e
000041B7  050183            add ax,0x8301
000041BA  3F                aas
000041BB  050E83            add ax,0x830e
000041BE  050183            add ax,0x8301
000041C1  3F                aas
000041C2  050AF3            add ax,0xf30a
000041C5  050883            add ax,0x8308
000041C8  051E5E            add ax,0x5e1e
000041CB  050F74            add ax,0x740f
000041CE  050BAD            add ax,0xad0b
000041D1  0512AD            add ax,0xad12
000041D4  050B74            add ax,0x740b
000041D7  051175            add ax,0x7511
000041DA  051474            add ax,0x7414
000041DD  051B3C            add ax,0x3c1b
000041E0  050B9E            add ax,0x9e0b
000041E3  0508BE            add ax,0xbe08
000041E6  051082            add ax,0x8210
000041E9  05063C            add ax,0x3c06
000041EC  05044B            add ax,0x4b04
000041EF  BBBB05            mov bx,0x5bb
000041F2  06                push es
000041F3  BB0504            mov bx,0x405
000041F6  830501            add word [di],byte +0x1
000041F9  5A                pop dx
000041FA  050723            add ax,0x2307
000041FD  050600            add ax,0x6
00004200  0204              add al,[si]
00004202  01BA0504          add [bp+si+0x405],di
00004206  59                pop cx
00004207  086705            or [bx+0x5],ah
0000420A  12E4              adc ah,ah
0000420C  05043C            add ax,0x3c04
0000420F  0859BB            or [bx+di-0x45],bl
00004212  BB0501            mov bx,0x105
00004215  3005              xor [di],al
00004217  0323              add sp,[bp+di]
00004219  0511E4            add ax,0xe411
0000421C  05033C            add ax,0x3c03
0000421F  0859BB            or [bx+di-0x45],bl
00004222  BB050A            mov bx,0xa05
00004225  035C2E            add bx,[si+0x2e]
00004228  050D74            add ax,0x740d
0000422B  05154A            add ax,0x4a15
0000422E  050703            add ax,0x307
00004231  26AC              es lodsb
00004233  050D74            add ax,0x740d
00004236  05153C            add ax,0x3c15
00004239  050582            add ax,0x8205
0000423C  050E59            add ax,0x590e
0000423F  051474            add ax,0x7414
00004242  050B3C            add ax,0x3c0b
00004245  050276            add ax,0x7602
00004248  0501E5            add ax,0xe501
0000424B  40                inc ax
0000424C  051708            add ax,0x817
0000424F  3D0505            cmp ax,0x505
00004252  82                db 0x82
00004253  052500            add ax,0x25
00004256  0204              add al,[si]
00004258  016606            add [bp+0x6],sp
0000425B  58                pop ax
0000425C  050306            add ax,0x603
0000425F  59                pop cx
00004260  051566            add ax,0x6615
00004263  052B91            add ax,0x912b
00004266  051082            add ax,0x8210
00004269  052B08            add ax,0x82b
0000426C  59                pop cx
0000426D  051082            add ax,0x8210
00004270  050508            add ax,0x805
00004273  5A                pop dx
00004274  050385            add ax,0x8503
00004277  051208            add ax,0x812
0000427A  BE051A            mov si,0x1a05
0000427D  82                db 0x82
0000427E  05053C            add ax,0x3c05
00004281  05134B            add ax,0x4b13
00004284  051674            add ax,0x7416
00004287  051E4A            add ax,0x4a1e
0000428A  05063C            add ax,0x3c06
0000428D  05044B            add ax,0x4b04
00004290  050A08            add ax,0x80a
00004293  BD0512            mov bp,0x1205
00004296  5A                pop dx
00004297  050168            add ax,0x6801
0000429A  31BA0506          xor [bp+si+0x605],di
0000429E  E505              in ax,0x5
000042A0  107505            adc [di+0x5],dh
000042A3  1D08BB            sbb ax,0xbb08
000042A6  051774            add ax,0x7417
000042A9  05053C            add ax,0x3c05
000042AC  05034B            add ax,0x4b03
000042AF  0502E6            add ax,0xe602
000042B2  08E5              or ch,ah
000042B4  050108            add ax,0x801
000042B7  830869            or word [bx+si],byte +0x69
000042BA  050F08            add ax,0x80f
000042BD  3D0505            cmp ax,0x505
000042C0  82                db 0x82
000042C1  051B9F            add ax,0x9f1b
000042C4  052D82            add ax,0x822d
000042C7  0002              add [bp+si],al
000042C9  0401              add al,0x1
000042CB  06                push es
000042CC  4A                dec dx
000042CD  0002              add [bp+si],al
000042CF  0402              add al,0x2
000042D1  90                nop
000042D2  050800            add ax,0x8
000042D5  0204              add al,[si]
000042D7  0406              add al,0x6
000042D9  7405              jz 0x42e0
000042DB  024B02            add cl,[bp+di+0x2]
000042DE  2A13              sub dl,[bp+di]
000042E0  051102            add ax,0x211
000042E3  2313              and dx,[bp+di]
000042E5  050282            add ax,0x8202
000042E8  051108            add ax,0x811
000042EB  2F                das
000042EC  050282            add ax,0x8202
000042EF  082F              or [bx],ch
000042F1  051603            add ax,0x316
000042F4  7A2E              jpe 0x4324
000042F6  050127            add ax,0x2701
000042F9  3105              xor [di],ax
000042FB  0DF305            or ax,0x5f3
000042FE  050891            add ax,0x9108
00004301  050375            add ax,0x7503
00004304  089F0502          or [bx+0x205],bl
00004308  A008E5            mov al,[0xe508]
0000430B  089108E5          or [bx+di-0x1af8],dl
0000430F  BB0501            mov bx,0x105
00004312  083D              or [di],bh
00004314  3F                aas
00004315  0508E5            add ax,0xe508
00004318  050200            add ax,0x2
0000431B  0204              add al,[si]
0000431D  019E0510          add [bp+0x1005],bx
00004321  7605              jna 0x4328
00004323  0DD705            or ax,0x5d7
00004326  0C83              or al,0x83
00004328  050BE5            add ax,0xe50b
0000432B  0510AD            add ax,0xad10
0000432E  050508            add ax,0x805
00004331  91                xchg ax,cx
00004332  050B9F            add ax,0x9f0b
00004335  050274            add ax,0x7402
00004338  05162F            add ax,0x2f16
0000433B  050D08            add ax,0x80d
0000433E  3C05              cmp al,0x5
00004340  09D7              or di,dx
00004342  0503AD            add ax,0xad03
00004345  0002              add [bp+si],al
00004347  0401              add al,0x1
00004349  06                push es
0000434A  089E06E5          or [bp-0x1afa],bl
0000434E  051D00            add ax,0x1d
00004351  0204              add al,[si]
00004353  0308              add cx,[bx+si]
00004355  54                push sp
00004356  051400            add ax,0x14
00004359  0204              add al,[si]
0000435B  014A05            add [bp+si+0x5],cx
0000435E  07                pop es
0000435F  A5                movsw
00004360  050375            add ax,0x7503
00004363  050B08            add ax,0x80b
00004366  830502            add word [di],byte +0x2
00004369  7405              jz 0x4370
0000436B  0D2F05            or ax,0x52f
0000436E  09840503          or [si+0x305],ax
00004372  AF                scasw
00004373  0002              add [bp+si],al
00004375  0401              add al,0x1
00004377  06                push es
00004378  089E051F          or [bp+0x1f05],bl
0000437C  0002              add [bp+si],al
0000437E  0403              add al,0x3
00004380  06                push es
00004381  037AE4            add di,[bp+si-0x1c]
00004384  051400            add ax,0x14
00004387  0204              add al,[si]
00004389  014A05            add [bp+si+0x5],cx
0000438C  0103              add [bp+di],ax
0000438E  0E                push cs
0000438F  C8020200          enter 0x202,0x0
00004393  0101              add [bx+di],ax
00004395  5F                pop di
00004396  5F                pop di
00004397  6F                outsw
00004398  66665F            pop edi
0000439B  7400              jz 0x439d
0000439D  5F                pop di
0000439E  49                dec cx
0000439F  4F                dec di
000043A0  5F                pop di
000043A1  7265              jc 0x4408
000043A3  61                popa
000043A4  645F              fs pop di
000043A6  7074              jo 0x441c
000043A8  7200              jc 0x43aa
000043AA  6D                insw
000043AB  61                popa
000043AC  6C                insb
000043AD  6C                insb
000043AE  6F                outsw
000043AF  6300              arpl [bx+si],ax
000043B1  5F                pop di
000043B2  636861            arpl [bx+si+0x61],bp
000043B5  696E007369        imul bp,[bp+0x0],word 0x6973
000043BA  7A65              jpe 0x4421
000043BC  5F                pop di
000043BD  7400              jz 0x43bf
000043BF  5F                pop di
000043C0  7368              jnc 0x442a
000043C2  6F                outsw
000043C3  7274              jc 0x4439
000043C5  627566            bound si,[di+0x66]
000043C8  007661            add [bp+0x61],dh
000043CB  6C                insb
000043CC  6964617465        imul sp,[si+0x61],word 0x6574
000043D1  5F                pop di
000043D2  7472              jz 0x4446
000043D4  6565007061        add [gs:bx+si+0x61],dh
000043D9  7468              jz 0x4443
000043DB  005F49            add [bx+0x49],bl
000043DE  4F                dec di
000043DF  5F                pop di
000043E0  627566            bound si,[di+0x66]
000043E3  5F                pop di
000043E4  626173            bound sp,[bx+di+0x73]
000043E7  65006C6F          add [gs:si+0x6f],ch
000043EB  6E                outsb
000043EC  67206C6F6E        and [dword edi+ebp*2+0x6e],ch
000043F1  6720756E          and [ebp+0x6e],dh
000043F5  7369              jnc 0x4460
000043F7  676E              a32 outsb
000043F9  656420696E        and [fs:bx+di+0x6e],ch
000043FE  7400              jz 0x4400
00004400  7064              jo 0x4466
00004402  6972006C6F        imul si,[bp+si+0x0],word 0x6f6c
00004407  6E                outsb
00004408  67206C6F6E        and [dword edi+ebp*2+0x6e],ch
0000440D  6720696E          and [ecx+0x6e],ch
00004411  7400              jz 0x4413
00004413  6E                outsb
00004414  61                popa
00004415  7669              jna 0x4480
00004417  6761              a32 popa
00004419  7465              jz 0x4480
0000441B  5F                pop di
0000441C  7472              jz 0x4490
0000441E  65655F            gs pop di
00004421  7072              jo 0x4495
00004423  6F                outsw
00004424  6D                insw
00004425  7074              jo 0x449b
00004427  005F66            add [bx+0x66],bl
0000442A  696C656E6F        imul bp,[si+0x65],word 0x6f6e
0000442F  006361            add [bp+di+0x61],ah
00004432  7365              jnc 0x4499
00004434  5F                pop di
00004435  3200              xor al,[bx+si]
00004437  5F                pop di
00004438  49                dec cx
00004439  4F                dec di
0000443A  5F                pop di
0000443B  7265              jc 0x44a2
0000443D  61                popa
0000443E  645F              fs pop di
00004440  656E              gs outsb
00004442  6400636F          add [fs:bp+di+0x6f],ah
00004446  6C                insb
00004447  6F                outsw
00004448  725F              jc 0x44a9
0000444A  6669785F61667465  imul edi,[bx+si+0x5f],dword 0x65746661
00004452  725F              jc 0x44b3
00004454  696E736572        imul bp,[bp+0x73],word 0x7265
00004459  7400              jz 0x445b
0000445B  5F                pop di
0000445C  666C              o32 insb
0000445E  61                popa
0000445F  677300            jnc 0x4462
00004462  6D                insw
00004463  61                popa
00004464  6B655F74          imul sp,[di+0x5f],byte +0x74
00004468  7265              jc 0x44cf
0000446A  65005F49          add [gs:bx+0x49],bl
0000446E  4F                dec di
0000446F  5F                pop di
00004470  627566            bound si,[di+0x66]
00004473  5F                pop di
00004474  656E              gs outsb
00004476  64005F63          add [fs:bx+0x63],bl
0000447A  7572              jnz 0x44ee
0000447C  5F                pop di
0000447D  636F6C            arpl [bx+0x6c],bp
00004480  756D              jnz 0x44ef
00004482  6E                outsb
00004483  005F49            add [bx+0x49],bl
00004486  4F                dec di
00004487  5F                pop di
00004488  636F64            arpl [bx+0x64],bp
0000448B  65637674          arpl [gs:bp+0x74],si
0000448F  005F5F            add [bx+0x5f],bl
00004492  69736F6339        imul si,[bp+di+0x6f],word 0x3963
00004497  395F73            cmp [bx+0x73],bx
0000449A  63616E            arpl [bx+di+0x6e],sp
0000449D  6600646F          o32 add [si+0x6f],ah
000044A1  7562              jnz 0x4505
000044A3  6C                insb
000044A4  65005F6F          add [gs:bx+0x6f],bl
000044A8  6C                insb
000044A9  645F              fs pop di
000044AB  6F                outsw
000044AC  66667365          o32 jnc 0x4515
000044B0  7400              jz 0x44b2
000044B2  6D                insw
000044B3  61                popa
000044B4  6B655F6E          imul sp,[di+0x5f],byte +0x6e
000044B8  6F                outsw
000044B9  6465006368        add [gs:bp+di+0x68],ah
000044BE  61                popa
000044BF  7261              jc 0x4522
000044C1  637465            arpl [si+0x65],si
000044C4  7200              jc 0x44c6
000044C6  6E                outsb
000044C7  6F                outsw
000044C8  64655F            gs pop di
000044CB  7400              jz 0x44cd
000044CD  5F                pop di
000044CE  49                dec cx
000044CF  4F                dec di
000044D0  5F                pop di
000044D1  6D                insw
000044D2  61                popa
000044D3  726B              jc 0x4540
000044D5  657200            gs jc 0x44d8
000044D8  7365              jnc 0x453f
000044DA  745F              jz 0x453b
000044DC  626C61            bound bp,[si+0x61]
000044DF  636B00            arpl [bp+di+0x0],bp
000044E2  5F                pop di
000044E3  667265            o32 jc 0x454b
000044E6  657265            gs jc 0x454e
000044E9  735F              jnc 0x454a
000044EB  627566            bound si,[di+0x66]
000044EE  006670            add [bp+0x70],ah
000044F1  7269              jc 0x455c
000044F3  6E                outsb
000044F4  7466              jz 0x455c
000044F6  007764            add [bx+0x64],dh
000044F9  67680076          push word 0x7600
000044FD  61                popa
000044FE  6C                insb
000044FF  6964617465        imul sp,[si+0x61],word 0x6574
00004504  005F49            add [bx+0x49],bl
00004507  4F                dec di
00004508  5F                pop di
00004509  7772              ja 0x457d
0000450B  6974655F70        imul si,[si+0x65],word 0x705f
00004510  7472              jz 0x4584
00004512  006E61            add [bp+0x61],ch
00004515  6D                insw
00004516  65007262          add [gs:bp+si+0x62],dh
0000451A  745F              jz 0x457b
0000451C  7400              jz 0x451e
0000451E  7368              jnc 0x4588
00004520  6F                outsw
00004521  7274              jc 0x4597
00004523  20756E            and [di+0x6e],dh
00004526  7369              jnc 0x4591
00004528  676E              a32 outsb
0000452A  656420696E        and [fs:bx+di+0x6e],ch
0000452F  7400              jz 0x4531
00004531  5F                pop di
00004532  49                dec cx
00004533  4F                dec di
00004534  5F                pop di
00004535  7361              jnc 0x4598
00004537  7665              jna 0x459e
00004539  5F                pop di
0000453A  626173            bound sp,[bx+di+0x73]
0000453D  65005F6C          add [gs:bx+0x6c],bl
00004541  6F                outsw
00004542  636B00            arpl [bp+di+0x0],bp
00004545  5F                pop di
00004546  666C              o32 insb
00004548  61                popa
00004549  677332            jnc 0x457e
0000454C  005F6D            add [bx+0x6d],bl
0000454F  6F                outsw
00004550  6465005F49        add [gs:bx+0x49],bl
00004555  4F                dec di
00004556  5F                pop di
00004557  7772              ja 0x45cb
00004559  6974655F65        imul si,[si+0x65],word 0x655f
0000455E  6E                outsb
0000455F  64006361          add [fs:bp+di+0x61],ah
00004563  7365              jnc 0x45ca
00004565  5F                pop di
00004566  3100              xor [bx+si],ax
00004568  5F                pop di
00004569  49                dec cx
0000456A  4F                dec di
0000456B  5F                pop di
0000456C  6C                insb
0000456D  6F                outsw
0000456E  636B5F            arpl [bp+di+0x5f],bp
00004571  7400              jz 0x4573
00004573  5F                pop di
00004574  49                dec cx
00004575  4F                dec di
00004576  5F                pop di
00004577  46                inc si
00004578  49                dec cx
00004579  4C                dec sp
0000457A  45                inc bp
0000457B  007469            add [si+0x69],dh
0000457E  6D                insw
0000457F  65006E6F          add [gs:bp+0x6f],ch
00004583  64655F            gs pop di
00004586  746F              jz 0x45f7
00004588  5F                pop di
00004589  696E736572        imul bp,[bp+0x73],word 0x7265
0000458E  7400              jz 0x4590
00004590  666F              outsd
00004592  7065              jo 0x45f9
00004594  6E                outsb
00004595  005F6D            add [bx+0x6d],bl
00004598  61                popa
00004599  726B              jc 0x4606
0000459B  657273            gs jc 0x4611
0000459E  007372            add [bp+di+0x72],dh
000045A1  61                popa
000045A2  6E                outsb
000045A3  64006174          add [fs:bx+di+0x74],ah
000045A7  6F                outsw
000045A8  69005F42          imul ax,[bx+si],word 0x425f
000045AC  6F                outsw
000045AD  6F                outsw
000045AE  6C                insb
000045AF  00756E            add [di+0x6e],dh
000045B2  7369              jnc 0x461d
000045B4  676E              a32 outsb
000045B6  6564206368        and [fs:bp+di+0x68],ah
000045BB  61                popa
000045BC  7200              jc 0x45be
000045BE  7368              jnc 0x4628
000045C0  6F                outsw
000045C1  7274              jc 0x4637
000045C3  20696E            and [bx+di+0x6e],ch
000045C6  7400              jz 0x45c8
000045C8  5F                pop di
000045C9  49                dec cx
000045CA  4F                dec di
000045CB  5F                pop di
000045CC  7769              ja 0x4637
000045CE  64655F            gs pop di
000045D1  6461              fs popa
000045D3  7461              jz 0x4636
000045D5  005F76            add [bx+0x76],bl
000045D8  7461              jz 0x463b
000045DA  626C65            bound bp,[si+0x65]
000045DD  5F                pop di
000045DE  6F                outsw
000045DF  66667365          o32 jnc 0x4648
000045E3  7400              jz 0x45e5
000045E5  657869            gs js 0x4651
000045E8  7400              jz 0x45ea
000045EA  7072              jo 0x465e
000045EC  696E745F6E        imul bp,[bp+0x74],word 0x6e5f
000045F1  6F                outsw
000045F2  6465007375        add [gs:bp+di+0x75],dh
000045F7  627472            bound si,[si+0x72]
000045FA  65655F            gs pop di
000045FD  726F              jc 0x466e
000045FF  6F                outsw
00004600  7400              jz 0x4602
00004602  636173            arpl [bx+di+0x73],sp
00004605  655F              gs pop di
00004607  3300              xor ax,[bx+si]
00004609  636F6C            arpl [bx+0x6c],bp
0000460C  6F                outsw
0000460D  7200              jc 0x460f
0000460F  626E6F            bound bp,[bp+0x6f]
00004612  64657331          gs jnc 0x4647
00004616  00626E            add [bp+si+0x6e],ah
00004619  6F                outsw
0000461A  64657332          gs jnc 0x4650
0000461E  006172            add [bx+di+0x72],ah
00004621  676300            arpl [eax],ax
00004624  726F              jc 0x4695
00004626  7461              jz 0x4689
00004628  7465              jz 0x468f
0000462A  006663            add [bp+0x63],ah
0000462D  6C                insb
0000462E  6F                outsw
0000462F  7365              jnc 0x4696
00004631  005F5F            add [bx+0x5f],bl
00004634  6F                outsw
00004635  666636345F        ss o32 xor al,0x5f
0000463A  7400              jz 0x463c
0000463C  5F                pop di
0000463D  49                dec cx
0000463E  4F                dec di
0000463F  5F                pop di
00004640  7265              jc 0x46a7
00004642  61                popa
00004643  645F              fs pop di
00004645  626173            bound sp,[bx+di+0x73]
00004648  65005F49          add [gs:bx+0x49],bl
0000464C  4F                dec di
0000464D  5F                pop di
0000464E  7361              jnc 0x46b1
00004650  7665              jna 0x46b7
00004652  5F                pop di
00004653  656E              gs outsb
00004655  64007465          add [fs:si+0x65],dh
00004659  6D                insw
0000465A  705F              jo 0x46bb
0000465C  6E                outsb
0000465D  6F                outsw
0000465E  64655F            gs pop di
00004661  6E                outsb
00004662  756D              jnz 0x46d1
00004664  626572            bound sp,[di+0x72]
00004667  007772            add [bx+0x72],dh
0000466A  6974655F64        imul si,[si+0x65],word 0x645f
0000466F  6F                outsw
00004670  745F              jz 0x46d1
00004672  677261            jc 0x46d6
00004675  7068              jo 0x46df
00004677  005F5F            add [bx+0x5f],bl
0000467A  7061              jo 0x46dd
0000467C  6435005F          fs xor ax,0x5f00
00004680  5F                pop di
00004681  7469              jz 0x46ec
00004683  6D                insw
00004684  655F              gs pop di
00004686  7400              jz 0x4688
00004688  5F                pop di
00004689  756E              jnz 0x46f9
0000468B  7573              jnz 0x4700
0000468D  65643200          xor al,[fs:bx+si]
00004691  7072              jo 0x4705
00004693  696E747374        imul bp,[bp+0x74],word 0x7473
00004698  7269              jc 0x4703
0000469A  6E                outsb
0000469B  67006172          add [ecx+0x72],ah
0000469F  677600            jna 0x46a2
000046A2  696E736572        imul bp,[bp+0x73],word 0x7265
000046A7  7465              jz 0x470e
000046A9  645F              fs pop di
000046AB  6E                outsb
000046AC  6F                outsw
000046AD  646500696E        add [gs:bx+di+0x6e],ch
000046B2  7365              jnc 0x4719
000046B4  7274              jc 0x472a
000046B6  5F                pop di
000046B7  696E746F5F        imul bp,[bp+0x74],word 0x5f6f
000046BC  7375              jnc 0x4733
000046BE  627472            bound si,[si+0x72]
000046C1  656500636F        add [gs:bp+di+0x6f],ah
000046C6  6C                insb
000046C7  6F                outsw
000046C8  725F              jc 0x4729
000046CA  7374              jnc 0x4740
000046CC  7269              jc 0x4737
000046CE  6E                outsb
000046CF  6700474E          add [edi+0x4e],al
000046D3  55                push bp
000046D4  204331            and [bp+di+0x31],al
000046D7  37                aaa
000046D8  2031              and [bx+di],dh
000046DA  332E312E          xor bp,[0x2e31]
000046DE  3120              xor [bx+si],sp
000046E0  3230              xor dh,[bx+si]
000046E2  3233              xor dh,[bp+di]
000046E4  3037              xor [bx],dh
000046E6  3134              xor [si],si
000046E8  202D              and [di],ch
000046EA  6D                insw
000046EB  7475              jz 0x4762
000046ED  6E                outsb
000046EE  653D6765          gs cmp ax,0x6567
000046F2  6E                outsb
000046F3  657269            gs jc 0x475f
000046F6  6320              arpl [bx+si],sp
000046F8  2D6D61            sub ax,0x616d
000046FB  7263              jc 0x4760
000046FD  683D78            push word 0x783d
00004700  38362D36          cmp [0x362d],dh
00004704  3420              xor al,0x20
00004706  2D6700            sub ax,0x67
00004709  7479              jz 0x4784
0000470B  7065              jo 0x4772
0000470D  5F                pop di
0000470E  6F                outsw
0000470F  665F              pop edi
00004711  636869            arpl [bx+si+0x69],bp
00004714  6C                insb
00004715  64005F49          add [fs:bx+0x49],bl
00004719  4F                dec di
0000471A  5F                pop di
0000471B  626163            bound sp,[bx+di+0x63]
0000471E  6B75705F          imul si,[di+0x70],byte +0x5f
00004722  626173            bound sp,[bx+di+0x73]
00004725  65007374          add [gs:bp+di+0x74],dh
00004729  61                popa
0000472A  7274              jc 0x47a0
0000472C  696E675F6E        imul bp,[bp+0x67],word 0x6e5f
00004731  6F                outsw
00004732  6465006E75        add [gs:bp+0x75],ch
00004737  6D                insw
00004738  626572            bound sp,[di+0x72]
0000473B  5F                pop di
0000473C  6F                outsw
0000473D  665F              pop edi
0000473F  6E                outsb
00004740  6F                outsw
00004741  64657300          gs jnc 0x4745
00004745  626865            bound bp,[bx+si+0x65]
00004748  6967687400        imul sp,[bx+0x68],word 0x74
0000474D  5F                pop di
0000474E  667265            o32 jc 0x47b6
00004751  657265            gs jc 0x47b9
00004754  735F              jnc 0x47b5
00004756  6C                insb
00004757  6973740073        imul si,[bp+di+0x74],word 0x7300
0000475C  65745F            gs jz 0x47be
0000475F  7265              jc 0x47c6
00004761  6400696E          add [fs:bx+di+0x6e],ch
00004765  7365              jnc 0x47cc
00004767  7274              jc 0x47dd
00004769  5F                pop di
0000476A  696E746F5F        imul bp,[bp+0x74],word 0x5f6f
0000476F  7472              jz 0x47e3
00004771  6565006D61        add [gs:di+0x61],ch
00004776  696E005F49        imul bp,[bp+0x0],word 0x495f
0000477B  4F                dec di
0000477C  5F                pop di
0000477D  7772              ja 0x47f1
0000477F  6974655F62        imul si,[si+0x65],word 0x625f
00004784  61                popa
00004785  7365              jnc 0x47ec
00004787  00636F            add [bp+di+0x6f],ah
0000478A  6C                insb
0000478B  6F                outsw
0000478C  725F              jc 0x47ed
0000478E  636861            arpl [bx+si+0x61],bp
00004791  7200              jc 0x4793
00004793  2F                das
00004794  686F6D            push word 0x6d6f
00004797  652F              gs das
00004799  7573              jnz 0x480e
0000479B  65722F            gs jc 0x47cd
0000479E  636C72            arpl [si+0x72],bp
000047A1  732F              jnc 0x47d2
000047A3  7262              jc 0x4807
000047A5  7400              jz 0x47a7
000047A7  6D                insw
000047A8  61                popa
000047A9  696E2E6300        imul bp,[bp+0x2e],word 0x63
000047AE  2F                das
000047AF  7573              jnz 0x4824
000047B1  722F              jc 0x47e2
000047B3  6C                insb
000047B4  69622F6763        imul sp,[bp+si+0x2f],word 0x6367
000047B9  632F              arpl [bx],bp
000047BB  7838              js 0x47f5
000047BD  365F              ss pop di
000047BF  36342D            ss xor al,0x2d
000047C2  7063              jo 0x4827
000047C4  2D6C69            sub ax,0x696c
000047C7  6E                outsb
000047C8  7578              jnz 0x4842
000047CA  2D676E            sub ax,0x6e67
000047CD  752F              jnz 0x47fe
000047CF  3133              xor [bp+di],si
000047D1  2E312E312F        xor [cs:0x2f31],bp
000047D6  696E636C75        imul bp,[bp+0x63],word 0x756c
000047DB  6465002F          add [gs:bx],ch
000047DF  7573              jnz 0x4854
000047E1  722F              jc 0x4812
000047E3  696E636C75        imul bp,[bp+0x63],word 0x756c
000047E8  64652F            gs das
000047EB  626974            bound bp,[bx+di+0x74]
000047EE  7300              jnc 0x47f0
000047F0  2F                das
000047F1  7573              jnz 0x4866
000047F3  722F              jc 0x4824
000047F5  696E636C75        imul bp,[bp+0x63],word 0x756c
000047FA  64652F            gs das
000047FD  626974            bound bp,[bx+di+0x74]
00004800  732F              jnc 0x4831
00004802  7479              jz 0x487d
00004804  7065              jo 0x486b
00004806  7300              jnc 0x4808
00004808  2F                das
00004809  7573              jnz 0x487e
0000480B  722F              jc 0x483c
0000480D  696E636C75        imul bp,[bp+0x63],word 0x756c
00004812  6465007374        add [gs:bp+di+0x74],dh
00004817  646465662E680074  cs push dword 0x70797400
         -7970
00004821  65732E            gs jnc 0x4852
00004824  680073            push word 0x7300
00004827  7472              jz 0x489b
00004829  7563              jnz 0x488e
0000482B  745F              jz 0x488c
0000482D  46                inc si
0000482E  49                dec cx
0000482F  4C                dec sp
00004830  45                inc bp
00004831  2E680074          cs push word 0x7400
00004835  696D655F74        imul bp,[di+0x65],word 0x745f
0000483A  2E680073          cs push word 0x7300
0000483E  7464              jz 0x48a4
00004840  6C                insb
00004841  69622E6800        imul sp,[bp+si+0x2e],word 0x68
00004846  7469              jz 0x48b1
00004848  6D                insw
00004849  652E680073        cs push word 0x7300
0000484E  7464              jz 0x48b4
00004850  696F2E6800        imul bp,[bx+0x2e],word 0x68
00004855  3C62              cmp al,0x62
00004857  7569              jnz 0x48c2
00004859  6C                insb
0000485A  742D              jz 0x4889
0000485C  696E3E0013        imul bp,[bp+0x3e],word 0x1300
00004861  0000              add [bx+si],al
00004863  0005              add [di],al
00004865  0008              add [bx+si],cl
00004867  0000              add [bx+si],al
00004869  0000              add [bx+si],al
0000486B  0004              add [si],al
0000486D  DB0A              fisttp dword [bp+si]
0000486F  9E                sahf
00004870  0D04B2            or ax,0xb204
00004873  0DB30D            or ax,0xdb3
00004876  0000              add [bx+si],al
00004878  0000              add [bx+si],al
0000487A  0000              add [bx+si],al
0000487C  0000              add [bx+si],al
0000487E  0000              add [bx+si],al
00004880  0000              add [bx+si],al
00004882  0000              add [bx+si],al
00004884  0000              add [bx+si],al
00004886  0000              add [bx+si],al
00004888  0000              add [bx+si],al
0000488A  0000              add [bx+si],al
0000488C  0000              add [bx+si],al
0000488E  0000              add [bx+si],al
00004890  0100              add [bx+si],ax
00004892  0000              add [bx+si],al
00004894  0400              add al,0x0
00004896  F1                int1
00004897  FF00              inc word [bx+si]
00004899  0000              add [bx+si],al
0000489B  0000              add [bx+si],al
0000489D  0000              add [bx+si],al
0000489F  0000              add [bx+si],al
000048A1  0000              add [bx+si],al
000048A3  0000              add [bx+si],al
000048A5  0000              add [bx+si],al
000048A7  0000              add [bx+si],al
000048A9  0000              add [bx+si],al
000048AB  0004              add [si],al
000048AD  00F1              add cl,dh
000048AF  FF00              inc word [bx+si]
000048B1  0000              add [bx+si],al
000048B3  0000              add [bx+si],al
000048B5  0000              add [bx+si],al
000048B7  0000              add [bx+si],al
000048B9  0000              add [bx+si],al
000048BB  0000              add [bx+si],al
000048BD  0000              add [bx+si],al
000048BF  0008              add [bx+si],cl
000048C1  0000              add [bx+si],al
000048C3  0001              add [bx+di],al
000048C5  0015              add [di],dl
000048C7  00E0              add al,ah
000048C9  3D0000            cmp ax,0x0
000048CC  0000              add [bx+si],al
000048CE  0000              add [bx+si],al
000048D0  0000              add [bx+si],al
000048D2  0000              add [bx+si],al
000048D4  0000              add [bx+si],al
000048D6  0000              add [bx+si],al
000048D8  1100              adc [bx+si],ax
000048DA  0000              add [bx+si],al
000048DC  0000              add [bx+si],al
000048DE  1100              adc [bx+si],ax
000048E0  AC                lodsb
000048E1  2200              and al,[bx+si]
000048E3  0000              add [bx+si],al
000048E5  0000              add [bx+si],al
000048E7  0000              add [bx+si],al
000048E9  0000              add [bx+si],al
000048EB  0000              add [bx+si],al
000048ED  0000              add [bx+si],al
000048EF  0024              add [si],ah
000048F1  0000              add [bx+si],al
000048F3  0001              add [bx+di],al
000048F5  0017              add [bx],dl
000048F7  00E8              add al,ch
000048F9  3F                aas
000048FA  0000              add [bx+si],al
000048FC  0000              add [bx+si],al
000048FE  0000              add [bx+si],al
00004900  0000              add [bx+si],al
00004902  0000              add [bx+si],al
00004904  0000              add [bx+si],al
00004906  0000              add [bx+si],al
00004908  3A00              cmp al,[bx+si]
0000490A  0000              add [bx+si],al
0000490C  1200              adc al,[bx+si]
0000490E  0000              add [bx+si],al
00004910  0000              add [bx+si],al
00004912  0000              add [bx+si],al
00004914  0000              add [bx+si],al
00004916  0000              add [bx+si],al
00004918  0000              add [bx+si],al
0000491A  0000              add [bx+si],al
0000491C  0000              add [bx+si],al
0000491E  0000              add [bx+si],al
00004920  4E                dec si
00004921  0000              add [bx+si],al
00004923  0012              add [bp+si],dl
00004925  0000              add [bx+si],al
00004927  0000              add [bx+si],al
00004929  0000              add [bx+si],al
0000492B  0000              add [bx+si],al
0000492D  0000              add [bx+si],al
0000492F  0000              add [bx+si],al
00004931  0000              add [bx+si],al
00004933  0000              add [bx+si],al
00004935  0000              add [bx+si],al
00004937  006B00            add [bp+di+0x0],ch
0000493A  0000              add [bx+si],al
0000493C  2000              and [bx+si],al
0000493E  0000              add [bx+si],al
00004940  0000              add [bx+si],al
00004942  0000              add [bx+si],al
00004944  0000              add [bx+si],al
00004946  0000              add [bx+si],al
00004948  0000              add [bx+si],al
0000494A  0000              add [bx+si],al
0000494C  0000              add [bx+si],al
0000494E  0000              add [bx+si],al
00004950  3F                aas
00004951  0100              add [bx+si],ax
00004953  0020              add [bx+si],ah
00004955  0018              add [bx+si],bl
00004957  007840            add [bx+si+0x40],bh
0000495A  0000              add [bx+si],al
0000495C  0000              add [bx+si],al
0000495E  0000              add [bx+si],al
00004960  0000              add [bx+si],al
00004962  0000              add [bx+si],al
00004964  0000              add [bx+si],al
00004966  0000              add [bx+si],al
00004968  8700              xchg ax,[bx+si]
0000496A  0000              add [bx+si],al
0000496C  1200              adc al,[bx+si]
0000496E  0000              add [bx+si],al
00004970  0000              add [bx+si],al
00004972  0000              add [bx+si],al
00004974  0000              add [bx+si],al
00004976  0000              add [bx+si],al
00004978  0000              add [bx+si],al
0000497A  0000              add [bx+si],al
0000497C  0000              add [bx+si],al
0000497E  0000              add [bx+si],al
00004980  98                cbw
00004981  0000              add [bx+si],al
00004983  0012              add [bp+si],dl
00004985  000E00FD          add [0xfd00],cl
00004989  1200              adc al,[bx+si]
0000498B  0000              add [bx+si],al
0000498D  0000              add [bx+si],al
0000498F  00CC              add ah,cl
00004991  0000              add [bx+si],al
00004993  0000              add [bx+si],al
00004995  0000              add [bx+si],al
00004997  00AC0000          add [si+0x0],ch
0000499B  0010              add [bx+si],dl
0000499D  0018              add [bx+si],bl
0000499F  00884000          add [bx+si+0x40],cl
000049A3  0000              add [bx+si],al
000049A5  0000              add [bx+si],al
000049A7  0000              add [bx+si],al
000049A9  0000              add [bx+si],al
000049AB  0000              add [bx+si],al
000049AD  0000              add [bx+si],al
000049AF  00B30000          add [bp+di+0x0],dh
000049B3  0012              add [bp+si],dl
000049B5  0000              add [bx+si],al
000049B7  0000              add [bx+si],al
000049B9  0000              add [bx+si],al
000049BB  0000              add [bx+si],al
000049BD  0000              add [bx+si],al
000049BF  0000              add [bx+si],al
000049C1  0000              add [bx+si],al
000049C3  0000              add [bx+si],al
000049C5  0000              add [bx+si],al
000049C7  00C6              add dh,al
000049C9  0000              add [bx+si],al
000049CB  0012              add [bp+si],dl
000049CD  000E00C9          add [0xc900],cl
000049D1  1300              adc ax,[bx+si]
000049D3  0000              add [bx+si],al
000049D5  0000              add [bx+si],al
000049D7  00A50000          add [di+0x0],ah
000049DB  0000              add [bx+si],al
000049DD  0000              add [bx+si],al
000049DF  00D7              add bh,dl
000049E1  0000              add [bx+si],al
000049E3  0012              add [bp+si],dl
000049E5  000E0095          add [0x9500],cl
000049E9  1200              adc al,[bx+si]
000049EB  0000              add [bx+si],al
000049ED  0000              add [bx+si],al
000049EF  006800            add [bx+si+0x0],ch
000049F2  0000              add [bx+si],al
000049F4  0000              add [bx+si],al
000049F6  0000              add [bx+si],al
000049F8  E100              loope 0x49fa
000049FA  0000              add [bx+si],al
000049FC  1202              adc al,[bp+si]
000049FE  0F00701F          jmpe word [bx+si+0x1f]
00004A02  0000              add [bx+si],al
00004A04  0000              add [bx+si],al
00004A06  0000              add [bx+si],al
00004A08  0000              add [bx+si],al
00004A0A  0000              add [bx+si],al
00004A0C  0000              add [bx+si],al
00004A0E  0000              add [bx+si],al
00004A10  E700              out 0x0,ax
00004A12  0000              add [bx+si],al
00004A14  1200              adc al,[bx+si]
00004A16  0000              add [bx+si],al
00004A18  0000              add [bx+si],al
00004A1A  0000              add [bx+si],al
00004A1C  0000              add [bx+si],al
00004A1E  0000              add [bx+si],al
00004A20  0000              add [bx+si],al
00004A22  0000              add [bx+si],al
00004A24  0000              add [bx+si],al
00004A26  0000              add [bx+si],al
00004A28  50                push ax
00004A29  0100              add [bx+si],ax
00004A2B  0012              add [bp+si],dl
00004A2D  0000              add [bx+si],al
00004A2F  0000              add [bx+si],al
00004A31  0000              add [bx+si],al
00004A33  0000              add [bx+si],al
00004A35  0000              add [bx+si],al
00004A37  0000              add [bx+si],al
00004A39  0000              add [bx+si],al
00004A3B  0000              add [bx+si],al
00004A3D  0000              add [bx+si],al
00004A3F  0002              add [bp+si],al
00004A41  0100              add [bx+si],ax
00004A43  0012              add [bp+si],dl
00004A45  000E0024          add [0x2400],cl
00004A49  1900              sbb [bx+si],ax
00004A4B  0000              add [bx+si],al
00004A4D  0000              add [bx+si],al
00004A4F  00A60100          add [bp+0x1],ah
00004A53  0000              add [bx+si],al
00004A55  0000              add [bx+si],al
00004A57  0019              add [bx+di],bl
00004A59  0100              add [bx+si],ax
00004A5B  0012              add [bp+si],dl
00004A5D  000E0019          add [0x1900],cl
00004A61  1200              adc al,[bx+si]
00004A63  0000              add [bx+si],al
00004A65  0000              add [bx+si],al
00004A67  007C00            add [si+0x0],bh
00004A6A  0000              add [bx+si],al
00004A6C  0000              add [bx+si],al
00004A6E  0000              add [bx+si],al
00004A70  2301              and ax,[bx+di]
00004A72  0000              add [bx+si],al
00004A74  1200              adc al,[bx+si]
00004A76  0000              add [bx+si],al
00004A78  0000              add [bx+si],al
00004A7A  0000              add [bx+si],al
00004A7C  0000              add [bx+si],al
00004A7E  0000              add [bx+si],al
00004A80  0000              add [bx+si],al
00004A82  0000              add [bx+si],al
00004A84  0000              add [bx+si],al
00004A86  0000              add [bx+si],al
00004A88  350100            xor ax,0x1
00004A8B  0012              add [bp+si],dl
00004A8D  000E00FE          add [0xfe00],cl
00004A91  1800              sbb [bx+si],al
00004A93  0000              add [bx+si],al
00004A95  0000              add [bx+si],al
00004A97  0013              add [bp+di],dl
00004A99  0000              add [bx+si],al
00004A9B  0000              add [bx+si],al
00004A9D  0000              add [bx+si],al
00004A9F  003D              add [di],bh
00004AA1  0100              add [bx+si],ax
00004AA3  0010              add [bx+si],dl
00004AA5  0018              add [bx+si],bl
00004AA7  007840            add [bx+si+0x40],bh
00004AAA  0000              add [bx+si],al
00004AAC  0000              add [bx+si],al
00004AAE  0000              add [bx+si],al
00004AB0  0000              add [bx+si],al
00004AB2  0000              add [bx+si],al
00004AB4  0000              add [bx+si],al
00004AB6  0000              add [bx+si],al
00004AB8  4A                dec dx
00004AB9  0100              add [bx+si],ax
00004ABB  0012              add [bp+si],dl
00004ABD  000E005D          add [0x5d00],cl
00004AC1  1C00              sbb al,0x0
00004AC3  0000              add [bx+si],al
00004AC5  0000              add [bx+si],al
00004AC7  00CE              add dh,cl
00004AC9  0000              add [bx+si],al
00004ACB  0000              add [bx+si],al
00004ACD  0000              add [bx+si],al
00004ACF  004F01            add [bx+0x1],cl
00004AD2  0000              add [bx+si],al
00004AD4  1200              adc al,[bx+si]
00004AD6  0000              add [bx+si],al
00004AD8  0000              add [bx+si],al
00004ADA  0000              add [bx+si],al
00004ADC  0000              add [bx+si],al
00004ADE  0000              add [bx+si],al
00004AE0  0000              add [bx+si],al
00004AE2  0000              add [bx+si],al
00004AE4  0000              add [bx+si],al
00004AE6  0000              add [bx+si],al
00004AE8  6301              arpl [bx+di],ax
00004AEA  0000              add [bx+si],al
00004AEC  2000              and [bx+si],al
00004AEE  0000              add [bx+si],al
00004AF0  0000              add [bx+si],al
00004AF2  0000              add [bx+si],al
00004AF4  0000              add [bx+si],al
00004AF6  0000              add [bx+si],al
00004AF8  0000              add [bx+si],al
00004AFA  0000              add [bx+si],al
00004AFC  0000              add [bx+si],al
00004AFE  0000              add [bx+si],al
00004B00  7201              jc 0x4b03
00004B02  0000              add [bx+si],al
00004B04  1102              adc [bp+si],ax
00004B06  1800              sbb [bx+si],al
00004B08  80400000          add byte [bx+si+0x0],0x0
00004B0C  0000              add [bx+si],al
00004B0E  0000              add [bx+si],al
00004B10  0000              add [bx+si],al
00004B12  0000              add [bx+si],al
00004B14  0000              add [bx+si],al
00004B16  0000              add [bx+si],al
00004B18  7F01              jg 0x4b1b
00004B1A  0000              add [bx+si],al
00004B1C  1100              adc [bx+si],ax
00004B1E  1000              adc [bx+si],al
00004B20  0020              add [bx+si],ah
00004B22  0000              add [bx+si],al
00004B24  0000              add [bx+si],al
00004B26  0000              add [bx+si],al
00004B28  0400              add al,0x0
00004B2A  0000              add [bx+si],al
00004B2C  0000              add [bx+si],al
00004B2E  0000              add [bx+si],al
00004B30  8E01              mov es,[bx+di]
00004B32  0000              add [bx+si],al
00004B34  1200              adc al,[bx+si]
00004B36  0E                push cs
00004B37  00B11B00          add [bx+di+0x1b],dh
00004B3B  0000              add [bx+si],al
00004B3D  0000              add [bx+si],al
00004B3F  00AC0000          add [si+0x0],ch
00004B43  0000              add [bx+si],al
00004B45  0000              add [bx+si],al
00004B47  009C0100          add [si+0x1],bl
00004B4B  0012              add [bp+si],dl
00004B4D  0000              add [bx+si],al
00004B4F  0000              add [bx+si],al
00004B51  0000              add [bx+si],al
00004B53  0000              add [bx+si],al
00004B55  0000              add [bx+si],al
00004B57  0000              add [bx+si],al
00004B59  0000              add [bx+si],al
00004B5B  0000              add [bx+si],al
00004B5D  0000              add [bx+si],al
00004B5F  00AD0100          add [di+0x1],ch
00004B63  0012              add [bp+si],dl
00004B65  000E00DE          add [0xde00],cl
00004B69  150000            adc ax,0x0
00004B6C  0000              add [bx+si],al
00004B6E  0000              add [bx+si],al
00004B70  6A01              push byte +0x1
00004B72  0000              add [bx+si],al
00004B74  0000              add [bx+si],al
00004B76  0000              add [bx+si],al
00004B78  B401              mov ah,0x1
00004B7A  0000              add [bx+si],al
00004B7C  1200              adc al,[bx+si]
00004B7E  0E                push cs
00004B7F  008B1400          add [bp+di+0x14],cl
00004B83  0000              add [bx+si],al
00004B85  0000              add [bx+si],al
00004B87  005301            add [bp+di+0x1],dl
00004B8A  0000              add [bx+si],al
00004B8C  0000              add [bx+si],al
00004B8E  0000              add [bx+si],al
00004B90  BF0100            mov di,0x1
00004B93  0012              add [bp+si],dl
00004B95  0000              add [bx+si],al
00004B97  0000              add [bx+si],al
00004B99  0000              add [bx+si],al
00004B9B  0000              add [bx+si],al
00004B9D  0000              add [bx+si],al
00004B9F  0000              add [bx+si],al
00004BA1  0000              add [bx+si],al
00004BA3  0000              add [bx+si],al
00004BA5  0000              add [bx+si],al
00004BA7  00D2              add dl,dl
00004BA9  0100              add [bx+si],ax
00004BAB  0012              add [bp+si],dl
00004BAD  000E0011          add [0x1100],cl
00004BB1  1900              sbb [bx+si],ax
00004BB3  0000              add [bx+si],al
00004BB5  0000              add [bx+si],al
00004BB7  0013              add [bp+di],dl
00004BB9  0000              add [bx+si],al
00004BBB  0000              add [bx+si],al
00004BBD  0000              add [bx+si],al
00004BBF  00DC              add ah,bl
00004BC1  0100              add [bx+si],ax
00004BC3  0010              add [bx+si],dl
00004BC5  0019              add [bx+di],bl
00004BC7  00904000          add [bx+si+0x40],dl
00004BCB  0000              add [bx+si],al
00004BCD  0000              add [bx+si],al
00004BCF  0000              add [bx+si],al
00004BD1  0000              add [bx+si],al
00004BD3  0000              add [bx+si],al
00004BD5  0000              add [bx+si],al
00004BD7  004301            add [bp+di+0x1],al
00004BDA  0000              add [bx+si],al
00004BDC  1200              adc al,[bx+si]
00004BDE  0E                push cs
00004BDF  0020              add [bx+si],ah
00004BE1  1100              adc [bx+si],ax
00004BE3  0000              add [bx+si],al
00004BE5  0000              add [bx+si],al
00004BE7  00260000          add [0x0],ah
00004BEB  0000              add [bx+si],al
00004BED  0000              add [bx+si],al
00004BEF  00E1              add cl,ah
00004BF1  0100              add [bx+si],ax
00004BF3  0012              add [bp+si],dl
00004BF5  000E00CA          add [0xca00],cl
00004BF9  1A00              sbb al,[bx+si]
00004BFB  0000              add [bx+si],al
00004BFD  0000              add [bx+si],al
00004BFF  00E7              add bh,ah
00004C01  0000              add [bx+si],al
00004C03  0000              add [bx+si],al
00004C05  0000              add [bx+si],al
00004C07  00EA              add dl,ch
00004C09  0100              add [bx+si],ax
00004C0B  0010              add [bx+si],dl
00004C0D  0019              add [bx+di],bl
00004C0F  00884000          add [bx+si+0x40],cl
00004C13  0000              add [bx+si],al
00004C15  0000              add [bx+si],al
00004C17  0000              add [bx+si],al
00004C19  0000              add [bx+si],al
00004C1B  0000              add [bx+si],al
00004C1D  0000              add [bx+si],al
00004C1F  00F6              add dh,dh
00004C21  0100              add [bx+si],ax
00004C23  0012              add [bp+si],dl
00004C25  000E00FE          add [0xfe00],cl
00004C29  1D0000            sbb ax,0x0
00004C2C  0000              add [bx+si],al
00004C2E  0000              add [bx+si],al
00004C30  7101              jno 0x4c33
00004C32  0000              add [bx+si],al
00004C34  0000              add [bx+si],al
00004C36  0000              add [bx+si],al
00004C38  FB                sti
00004C39  0100              add [bx+si],ax
00004C3B  0012              add [bp+si],dl
00004C3D  000E0048          add [0x4800],cl
00004C41  17                pop ss
00004C42  0000              add [bx+si],al
00004C44  0000              add [bx+si],al
00004C46  0000              add [bx+si],al
00004C48  9A01000000        call 0x0:0x1
00004C4D  0000              add [bx+si],al
00004C4F  0010              add [bx+si],dl
00004C51  0200              add al,[bx+si]
00004C53  0012              add [bp+si],dl
00004C55  000E002B          add [0x2b00],cl
00004C59  1D0000            sbb ax,0x0
00004C5C  0000              add [bx+si],al
00004C5E  0000              add [bx+si],al
00004C60  D300              rol word [bx+si],cl
00004C62  0000              add [bx+si],al
00004C64  0000              add [bx+si],al
00004C66  0000              add [bx+si],al
00004C68  2002              and [bp+si],al
00004C6A  0000              add [bx+si],al
00004C6C  1200              adc al,[bx+si]
00004C6E  0000              add [bx+si],al
00004C70  0000              add [bx+si],al
00004C72  0000              add [bx+si],al
00004C74  0000              add [bx+si],al
00004C76  0000              add [bx+si],al
00004C78  0000              add [bx+si],al
00004C7A  0000              add [bx+si],al
00004C7C  0000              add [bx+si],al
00004C7E  0000              add [bx+si],al
00004C80  3202              xor al,[bp+si]
00004C82  0000              add [bx+si],al
00004C84  1200              adc al,[bx+si]
00004C86  0E                push cs
00004C87  00E2              add dl,ah
00004C89  1800              sbb [bx+si],al
00004C8B  0000              add [bx+si],al
00004C8D  0000              add [bx+si],al
00004C8F  001C              add [si],bl
00004C91  0000              add [bx+si],al
00004C93  0000              add [bx+si],al
00004C95  0000              add [bx+si],al
00004C97  004002            add [bx+si+0x2],al
00004C9A  0000              add [bx+si],al
00004C9C  1200              adc al,[bx+si]
00004C9E  0000              add [bx+si],al
00004CA0  0000              add [bx+si],al
00004CA2  0000              add [bx+si],al
00004CA4  0000              add [bx+si],al
00004CA6  0000              add [bx+si],al
00004CA8  0000              add [bx+si],al
00004CAA  0000              add [bx+si],al
00004CAC  0000              add [bx+si],al
00004CAE  0000              add [bx+si],al
00004CB0  59                pop cx
00004CB1  0200              add al,[bx+si]
00004CB3  0012              add [bp+si],dl
00004CB5  0000              add [bx+si],al
00004CB7  0000              add [bx+si],al
00004CB9  0000              add [bx+si],al
00004CBB  0000              add [bx+si],al
00004CBD  0000              add [bx+si],al
00004CBF  0000              add [bx+si],al
00004CC1  0000              add [bx+si],al
00004CC3  0000              add [bx+si],al
00004CC5  0000              add [bx+si],al
00004CC7  006A02            add [bp+si+0x2],ch
00004CCA  0000              add [bx+si],al
00004CCC  1200              adc al,[bx+si]
00004CCE  0000              add [bx+si],al
00004CD0  0000              add [bx+si],al
00004CD2  0000              add [bx+si],al
00004CD4  0000              add [bx+si],al
00004CD6  0000              add [bx+si],al
00004CD8  0000              add [bx+si],al
00004CDA  0000              add [bx+si],al
00004CDC  0000              add [bx+si],al
00004CDE  0000              add [bx+si],al
00004CE0  7B02              jpo 0x4ce4
00004CE2  0000              add [bx+si],al
00004CE4  1200              adc al,[bx+si]
00004CE6  0000              add [bx+si],al
00004CE8  0000              add [bx+si],al
00004CEA  0000              add [bx+si],al
00004CEC  0000              add [bx+si],al
00004CEE  0000              add [bx+si],al
00004CF0  0000              add [bx+si],al
00004CF2  0000              add [bx+si],al
00004CF4  0000              add [bx+si],al
00004CF6  0000              add [bx+si],al
00004CF8  8E02              mov es,[bp+si]
00004CFA  0000              add [bx+si],al
00004CFC  1102              adc [bp+si],ax
00004CFE  1800              sbb [bx+si],al
00004D00  884000            mov [bx+si+0x0],al
00004D03  0000              add [bx+si],al
00004D05  0000              add [bx+si],al
00004D07  0000              add [bx+si],al
00004D09  0000              add [bx+si],al
00004D0B  0000              add [bx+si],al
00004D0D  0000              add [bx+si],al
00004D0F  009A0200          add [bp+si+0x2],bl
00004D13  0020              add [bx+si],ah
00004D15  0000              add [bx+si],al
00004D17  0000              add [bx+si],al
00004D19  0000              add [bx+si],al
00004D1B  0000              add [bx+si],al
00004D1D  0000              add [bx+si],al
00004D1F  0000              add [bx+si],al
00004D21  0000              add [bx+si],al
00004D23  0000              add [bx+si],al
00004D25  0000              add [bx+si],al
00004D27  00B40200          add [si+0x2],dh
00004D2B  0012              add [bp+si],dl
00004D2D  000E006E          add [0x6e00],cl
00004D31  1400              adc al,0x0
00004D33  0000              add [bx+si],al
00004D35  0000              add [bx+si],al
00004D37  001D              add [di],bl
00004D39  0000              add [bx+si],al
00004D3B  0000              add [bx+si],al
00004D3D  0000              add [bx+si],al
00004D3F  00BF0200          add [bx+0x2],bh
00004D43  0022              add [bp+si],ah
00004D45  0000              add [bx+si],al
00004D47  0000              add [bx+si],al
00004D49  0000              add [bx+si],al
00004D4B  0000              add [bx+si],al
00004D4D  0000              add [bx+si],al
00004D4F  0000              add [bx+si],al
00004D51  0000              add [bx+si],al
00004D53  0000              add [bx+si],al
00004D55  0000              add [bx+si],al
00004D57  00DA              add dl,bl
00004D59  0200              add al,[bx+si]
00004D5B  0012              add [bp+si],dl
00004D5D  020C              add cl,[si]
00004D5F  0000              add [bx+si],al
00004D61  1000              adc [bx+si],al
00004D63  0000              add [bx+si],al
00004D65  0000              add [bx+si],al
00004D67  0000              add [bx+si],al
00004D69  0000              add [bx+si],al
00004D6B  0000              add [bx+si],al
00004D6D  0000              add [bx+si],al
00004D6F  0024              add [si],ah
00004D71  0100              add [bx+si],ax
00004D73  0012              add [bp+si],dl
00004D75  0000              add [bx+si],al
00004D77  0000              add [bx+si],al
00004D79  0000              add [bx+si],al
00004D7B  0000              add [bx+si],al
00004D7D  0000              add [bx+si],al
00004D7F  0000              add [bx+si],al
00004D81  0000              add [bx+si],al
00004D83  0000              add [bx+si],al
00004D85  0000              add [bx+si],al
00004D87  0000              add [bx+si],al
00004D89  6D                insw
00004D8A  61                popa
00004D8B  696E2E6300        imul bp,[bp+0x2e],word 0x63
00004D90  5F                pop di
00004D91  44                inc sp
00004D92  59                pop cx
00004D93  4E                dec si
00004D94  41                inc cx
00004D95  4D                dec bp
00004D96  49                dec cx
00004D97  43                inc bx
00004D98  005F5F            add [bx+0x5f],bl
00004D9B  47                inc di
00004D9C  4E                dec si
00004D9D  55                push bp
00004D9E  5F                pop di
00004D9F  45                inc bp
00004DA0  48                dec ax
00004DA1  5F                pop di
00004DA2  46                inc si
00004DA3  52                push dx
00004DA4  41                inc cx
00004DA5  4D                dec bp
00004DA6  45                inc bp
00004DA7  5F                pop di
00004DA8  48                dec ax
00004DA9  44                inc sp
00004DAA  52                push dx
00004DAB  005F47            add [bx+0x47],bl
00004DAE  4C                dec sp
00004DAF  4F                dec di
00004DB0  42                inc dx
00004DB1  41                inc cx
00004DB2  4C                dec sp
00004DB3  5F                pop di
00004DB4  4F                dec di
00004DB5  46                inc si
00004DB6  46                inc si
00004DB7  53                push bx
00004DB8  45                inc bp
00004DB9  54                push sp
00004DBA  5F                pop di
00004DBB  54                push sp
00004DBC  41                inc cx
00004DBD  42                inc dx
00004DBE  4C                dec sp
00004DBF  45                inc bp
00004DC0  5F                pop di
00004DC1  007075            add [bx+si+0x75],dh
00004DC4  7463              jz 0x4e29
00004DC6  686172            push word 0x7261
00004DC9  40                inc ax
00004DCA  47                inc di
00004DCB  4C                dec sp
00004DCC  49                dec cx
00004DCD  42                inc dx
00004DCE  43                inc bx
00004DCF  5F                pop di
00004DD0  322E322E          xor ch,[0x2e32]
00004DD4  35005F            xor ax,0x5f00
00004DD7  5F                pop di
00004DD8  6C                insb
00004DD9  6962635F73        imul sp,[bp+si+0x63],word 0x735f
00004DDE  7461              jz 0x4e41
00004DE0  7274              jc 0x4e56
00004DE2  5F                pop di
00004DE3  6D                insw
00004DE4  61                popa
00004DE5  696E40474C        imul bp,[bp+0x40],word 0x4c47
00004DEA  49                dec cx
00004DEB  42                inc dx
00004DEC  43                inc bx
00004DED  5F                pop di
00004DEE  322E3334          xor ch,[0x3433]
00004DF2  005F49            add [bx+0x49],bl
00004DF5  54                push sp
00004DF6  4D                dec bp
00004DF7  5F                pop di
00004DF8  64657265          gs jc 0x4e61
00004DFC  676973746572      imul si,[ebx+0x74],word 0x7265
00004E02  54                push sp
00004E03  4D                dec bp
00004E04  43                inc bx
00004E05  6C                insb
00004E06  6F                outsw
00004E07  6E                outsb
00004E08  6554              gs push sp
00004E0A  61                popa
00004E0B  626C65            bound bp,[si+0x65]
00004E0E  007075            add [bx+si+0x75],dh
00004E11  7473              jz 0x4e86
00004E13  40                inc ax
00004E14  47                inc di
00004E15  4C                dec sp
00004E16  49                dec cx
00004E17  42                inc dx
00004E18  43                inc bx
00004E19  5F                pop di
00004E1A  322E322E          xor ch,[0x2e32]
00004E1E  350069            xor ax,0x6900
00004E21  6E                outsb
00004E22  7365              jnc 0x4e89
00004E24  7274              jc 0x4e9a
00004E26  5F                pop di
00004E27  696E746F5F        imul bp,[bp+0x74],word 0x5f6f
00004E2C  7375              jnc 0x4ea3
00004E2E  627472            bound si,[si+0x72]
00004E31  6565005F65        add [gs:bx+0x65],bl
00004E36  6461              fs popa
00004E38  7461              jz 0x4e9b
00004E3A  006663            add [bp+0x63],ah
00004E3D  6C                insb
00004E3E  6F                outsw
00004E3F  7365              jnc 0x4ea6
00004E41  40                inc ax
00004E42  47                inc di
00004E43  4C                dec sp
00004E44  49                dec cx
00004E45  42                inc dx
00004E46  43                inc bx
00004E47  5F                pop di
00004E48  322E322E          xor ch,[0x2e32]
00004E4C  350069            xor ax,0x6900
00004E4F  6E                outsb
00004E50  7365              jnc 0x4eb7
00004E52  7274              jc 0x4ec8
00004E54  5F                pop di
00004E55  696E746F5F        imul bp,[bp+0x74],word 0x5f6f
00004E5A  7472              jz 0x4ece
00004E5C  6565006D61        add [gs:di+0x61],ch
00004E61  6B655F74          imul sp,[di+0x5f],byte +0x74
00004E65  7265              jc 0x4ecc
00004E67  65005F66          add [gs:bx+0x66],bl
00004E6B  696E69005F        imul bp,[bp+0x69],word 0x5f00
00004E70  5F                pop di
00004E71  7374              jnc 0x4ee7
00004E73  61                popa
00004E74  636B5F            arpl [bp+di+0x5f],bp
00004E77  63686B            arpl [bx+si+0x6b],bp
00004E7A  5F                pop di
00004E7B  6661              popad
00004E7D  696C40474C        imul bp,[si+0x40],word 0x4c47
00004E82  49                dec cx
00004E83  42                inc dx
00004E84  43                inc bx
00004E85  5F                pop di
00004E86  322E3400          xor ch,[0x34]
00004E8A  636F6C            arpl [bx+0x6c],bp
00004E8D  6F                outsw
00004E8E  725F              jc 0x4eef
00004E90  6669785F61667465  imul edi,[bx+si+0x5f],dword 0x65746661
00004E98  725F              jc 0x4ef9
00004E9A  696E736572        imul bp,[bp+0x73],word 0x7265
00004E9F  7400              jz 0x4ea1
00004EA1  6D                insw
00004EA2  61                popa
00004EA3  6B655F6E          imul sp,[di+0x5f],byte +0x6e
00004EA7  6F                outsw
00004EA8  6465007372        add [gs:bp+di+0x72],dh
00004EAD  61                popa
00004EAE  6E                outsb
00004EAF  6440              fs inc ax
00004EB1  47                inc di
00004EB2  4C                dec sp
00004EB3  49                dec cx
00004EB4  42                inc dx
00004EB5  43                inc bx
00004EB6  5F                pop di
00004EB7  322E322E          xor ch,[0x2e32]
00004EBB  350073            xor ax,0x7300
00004EBE  65745F            gs jz 0x4f20
00004EC1  7265              jc 0x4f28
00004EC3  64005F5F          add [fs:bx+0x5f],bl
00004EC7  6461              fs popa
00004EC9  7461              jz 0x4f2c
00004ECB  5F                pop di
00004ECC  7374              jnc 0x4f42
00004ECE  61                popa
00004ECF  7274              jc 0x4f45
00004ED1  007764            add [bx+0x64],dh
00004ED4  67680066          push word 0x6600
00004ED8  7072              jo 0x4f4c
00004EDA  696E746640        imul bp,[bp+0x74],word 0x4066
00004EDF  47                inc di
00004EE0  4C                dec sp
00004EE1  49                dec cx
00004EE2  42                inc dx
00004EE3  43                inc bx
00004EE4  5F                pop di
00004EE5  322E322E          xor ch,[0x2e32]
00004EE9  35005F            xor ax,0x5f00
00004EEC  5F                pop di
00004EED  676D              a32 insw
00004EEF  6F                outsw
00004EF0  6E                outsb
00004EF1  5F                pop di
00004EF2  7374              jnc 0x4f68
00004EF4  61                popa
00004EF5  7274              jc 0x4f6b
00004EF7  5F                pop di
00004EF8  5F                pop di
00004EF9  005F5F            add [bx+0x5f],bl
00004EFC  64736F            fs jnc 0x4f6e
00004EFF  5F                pop di
00004F00  68616E            push word 0x6e61
00004F03  646C              fs insb
00004F05  65005F49          add [gs:bx+0x49],bl
00004F09  4F                dec di
00004F0A  5F                pop di
00004F0B  7374              jnc 0x4f81
00004F0D  64696E5F7573      imul bp,[fs:bp+0x5f],word 0x7375
00004F13  6564007661        add [fs:bp+0x61],dh
00004F18  6C                insb
00004F19  6964617465        imul sp,[si+0x61],word 0x6574
00004F1E  5F                pop di
00004F1F  7472              jz 0x4f93
00004F21  6565007469        add [gs:si+0x69],dh
00004F26  6D                insw
00004F27  6540              gs inc ax
00004F29  47                inc di
00004F2A  4C                dec sp
00004F2B  49                dec cx
00004F2C  42                inc dx
00004F2D  43                inc bx
00004F2E  5F                pop di
00004F2F  322E322E          xor ch,[0x2e32]
00004F33  350072            xor ax,0x7200
00004F36  6F                outsw
00004F37  7461              jz 0x4f9a
00004F39  7465              jz 0x4fa0
00004F3B  007072            add [bx+si+0x72],dh
00004F3E  696E745F6E        imul bp,[bp+0x74],word 0x6e5f
00004F43  6F                outsw
00004F44  6465006D61        add [gs:di+0x61],ch
00004F49  6C                insb
00004F4A  6C                insb
00004F4B  6F                outsw
00004F4C  634047            arpl [bx+si+0x47],ax
00004F4F  4C                dec sp
00004F50  49                dec cx
00004F51  42                inc dx
00004F52  43                inc bx
00004F53  5F                pop di
00004F54  322E322E          xor ch,[0x2e32]
00004F58  350073            xor ax,0x7300
00004F5B  65745F            gs jz 0x4fbd
00004F5E  626C61            bound bp,[si+0x61]
00004F61  636B00            arpl [bp+di+0x0],bp
00004F64  5F                pop di
00004F65  656E              gs outsb
00004F67  64007661          add [fs:bp+0x61],dh
00004F6B  6C                insb
00004F6C  6964617465        imul sp,[si+0x61],word 0x6574
00004F71  005F5F            add [bx+0x5f],bl
00004F74  627373            bound si,[bp+di+0x73]
00004F77  5F                pop di
00004F78  7374              jnc 0x4fee
00004F7A  61                popa
00004F7B  7274              jc 0x4ff1
00004F7D  006D61            add [di+0x61],ch
00004F80  696E006E61        imul bp,[bp+0x0],word 0x616e
00004F85  7669              jna 0x4ff0
00004F87  6761              a32 popa
00004F89  7465              jz 0x4ff0
00004F8B  5F                pop di
00004F8C  7472              jz 0x5000
00004F8E  65655F            gs pop di
00004F91  7072              jo 0x5005
00004F93  6F                outsw
00004F94  6D                insw
00004F95  7074              jo 0x500b
00004F97  007772            add [bx+0x72],dh
00004F9A  6974655F64        imul si,[si+0x65],word 0x645f
00004F9F  6F                outsw
00004FA0  745F              jz 0x5001
00004FA2  677261            jc 0x5006
00004FA5  7068              jo 0x500f
00004FA7  00666F            add [bp+0x6f],ah
00004FAA  7065              jo 0x5011
00004FAC  6E                outsb
00004FAD  40                inc ax
00004FAE  47                inc di
00004FAF  4C                dec sp
00004FB0  49                dec cx
00004FB1  42                inc dx
00004FB2  43                inc bx
00004FB3  5F                pop di
00004FB4  322E322E          xor ch,[0x2e32]
00004FB8  350074            xor ax,0x7400
00004FBB  7970              jns 0x502d
00004FBD  655F              gs pop di
00004FBF  6F                outsw
00004FC0  665F              pop edi
00004FC2  636869            arpl [bx+si+0x69],bp
00004FC5  6C                insb
00004FC6  64005F5F          add [fs:bx+0x5f],bl
00004FCA  69736F6339        imul si,[bp+di+0x6f],word 0x3963
00004FCF  395F73            cmp [bx+0x73],bx
00004FD2  63616E            arpl [bx+di+0x6e],sp
00004FD5  6640              inc eax
00004FD7  47                inc di
00004FD8  4C                dec sp
00004FD9  49                dec cx
00004FDA  42                inc dx
00004FDB  43                inc bx
00004FDC  5F                pop di
00004FDD  322E3700          xor ch,[0x37]
00004FE1  61                popa
00004FE2  746F              jz 0x5053
00004FE4  6940474C49        imul ax,[bx+si+0x47],word 0x494c
00004FE9  42                inc dx
00004FEA  43                inc bx
00004FEB  5F                pop di
00004FEC  322E322E          xor ch,[0x2e32]
00004FF0  350065            xor ax,0x6500
00004FF3  7869              js 0x505e
00004FF5  7440              jz 0x5037
00004FF7  47                inc di
00004FF8  4C                dec sp
00004FF9  49                dec cx
00004FFA  42                inc dx
00004FFB  43                inc bx
00004FFC  5F                pop di
00004FFD  322E322E          xor ch,[0x2e32]
00005001  350066            xor ax,0x6600
00005004  7772              ja 0x5078
00005006  6974654047        imul si,[si+0x65],word 0x4740
0000500B  4C                dec sp
0000500C  49                dec cx
0000500D  42                inc dx
0000500E  43                inc bx
0000500F  5F                pop di
00005010  322E322E          xor ch,[0x2e32]
00005014  35005F            xor ax,0x5f00
00005017  5F                pop di
00005018  54                push sp
00005019  4D                dec bp
0000501A  43                inc bx
0000501B  5F                pop di
0000501C  45                inc bp
0000501D  4E                dec si
0000501E  44                inc sp
0000501F  5F                pop di
00005020  5F                pop di
00005021  005F49            add [bx+0x49],bl
00005024  54                push sp
00005025  4D                dec bp
00005026  5F                pop di
00005027  7265              jc 0x508e
00005029  676973746572      imul si,[ebx+0x74],word 0x7265
0000502F  54                push sp
00005030  4D                dec bp
00005031  43                inc bx
00005032  6C                insb
00005033  6F                outsw
00005034  6E                outsb
00005035  6554              gs push sp
00005037  61                popa
00005038  626C65            bound bp,[si+0x65]
0000503B  00636F            add [bp+di+0x6f],ah
0000503E  6C                insb
0000503F  6F                outsw
00005040  725F              jc 0x50a1
00005042  636861            arpl [bx+si+0x61],bp
00005045  7200              jc 0x5047
00005047  5F                pop di
00005048  5F                pop di
00005049  637861            arpl [bx+si+0x61],di
0000504C  5F                pop di
0000504D  66696E616C697A65  imul ebp,[bp+0x61],dword 0x657a696c
00005055  40                inc ax
00005056  47                inc di
00005057  4C                dec sp
00005058  49                dec cx
00005059  42                inc dx
0000505A  43                inc bx
0000505B  5F                pop di
0000505C  322E322E          xor ch,[0x2e32]
00005060  35005F            xor ax,0x5f00
00005063  696E697400        imul bp,[bp+0x69],word 0x74
00005068  002E7379          add [0x7973],ch
0000506C  6D                insw
0000506D  7461              jz 0x50d0
0000506F  6200              bound ax,[bx+si]
00005071  2E7374            cs jnc 0x50e8
00005074  7274              jc 0x50ea
00005076  61                popa
00005077  6200              bound ax,[bx+si]
00005079  2E7368            cs jnc 0x50e4
0000507C  7374              jnc 0x50f2
0000507E  7274              jc 0x50f4
00005080  61                popa
00005081  6200              bound ax,[bx+si]
00005083  2E696E746572      imul bp,[cs:bp+0x74],word 0x7265
00005089  7000              jo 0x508b
0000508B  2E6E              cs outsb
0000508D  6F                outsw
0000508E  7465              jz 0x50f5
00005090  2E676E            cs a32 outsb
00005093  752E              jnz 0x50c3
00005095  7072              jo 0x5109
00005097  6F                outsw
00005098  7065              jo 0x50ff
0000509A  7274              jc 0x5110
0000509C  7900              jns 0x509e
0000509E  2E6E              cs outsb
000050A0  6F                outsw
000050A1  7465              jz 0x5108
000050A3  2E676E            cs a32 outsb
000050A6  752E              jnz 0x50d6
000050A8  627569            bound si,[di+0x69]
000050AB  6C                insb
000050AC  642D6964          fs sub ax,0x6469
000050B0  002E6E6F          add [0x6f6e],ch
000050B4  7465              jz 0x511b
000050B6  2E41              cs inc cx
000050B8  42                inc dx
000050B9  49                dec cx
000050BA  2D7461            sub ax,0x6174
000050BD  67002E            add [esi],ch
000050C0  676E              a32 outsb
000050C2  752E              jnz 0x50f2
000050C4  686173            push word 0x7361
000050C7  68002E            push word 0x2e00
000050CA  64796E            fs jns 0x513b
000050CD  7379              jnc 0x5148
000050CF  6D                insw
000050D0  002E6479          add [0x7964],ch
000050D4  6E                outsb
000050D5  7374              jnc 0x514b
000050D7  7200              jc 0x50d9
000050D9  2E676E            cs a32 outsb
000050DC  752E              jnz 0x510c
000050DE  7665              jna 0x5145
000050E0  7273              jc 0x5155
000050E2  696F6E002E        imul bp,[bx+0x6e],word 0x2e00
000050E7  676E              a32 outsb
000050E9  752E              jnz 0x5119
000050EB  7665              jna 0x5152
000050ED  7273              jc 0x5162
000050EF  696F6E5F72        imul bp,[bx+0x6e],word 0x725f
000050F4  002E7265          add [0x6572],ch
000050F8  6C                insb
000050F9  61                popa
000050FA  2E64796E          fs jns 0x516c
000050FE  002E7265          add [0x6572],ch
00005102  6C                insb
00005103  61                popa
00005104  2E706C            cs jo 0x5173
00005107  7400              jz 0x5109
00005109  2E696E697400      imul bp,[cs:bp+0x69],word 0x74
0000510F  2E7465            cs jz 0x5177
00005112  7874              js 0x5188
00005114  002E6669          add [0x6966],ch
00005118  6E                outsb
00005119  69002E72          imul ax,[bx+si],word 0x722e
0000511D  6F                outsw
0000511E  6461              fs popa
00005120  7461              jz 0x5183
00005122  002E6568          add [0x6865],ch
00005126  5F                pop di
00005127  667261            o32 jc 0x518b
0000512A  6D                insw
0000512B  655F              gs pop di
0000512D  686472            push word 0x7264
00005130  002E6568          add [0x6865],ch
00005134  5F                pop di
00005135  667261            o32 jc 0x5199
00005138  6D                insw
00005139  65002E696E        add [gs:0x6e69],ch
0000513E  69745F6172        imul si,[si+0x5f],word 0x7261
00005143  7261              jc 0x51a6
00005145  7900              jns 0x5147
00005147  2E66696E695F6172  imul ebp,[cs:bp+0x69],dword 0x7272615f
         -72
00005150  61                popa
00005151  7900              jns 0x5153
00005153  2E64796E          fs jns 0x51c5
00005157  61                popa
00005158  6D                insw
00005159  6963002E67        imul sp,[bp+di+0x0],word 0x672e
0000515E  6F                outsw
0000515F  7400              jz 0x5161
00005161  2E676F            cs a32 outsw
00005164  742E              jz 0x5194
00005166  706C              jo 0x51d4
00005168  7400              jz 0x516a
0000516A  2E6461            fs popa
0000516D  7461              jz 0x51d0
0000516F  002E6273          add [0x7362],ch
00005173  7300              jnc 0x5175
00005175  2E636F6D          arpl [cs:bx+0x6d],bp
00005179  6D                insw
0000517A  656E              gs outsb
0000517C  7400              jz 0x517e
0000517E  2E6465627567      bound si,[gs:di+0x67]
00005184  5F                pop di
00005185  61                popa
00005186  7261              jc 0x51e9
00005188  6E                outsb
00005189  67657300          gs jnc 0x518d
0000518D  2E6465627567      bound si,[gs:di+0x67]
00005193  5F                pop di
00005194  696E666F00        imul bp,[bp+0x66],word 0x6f
00005199  2E6465627567      bound si,[gs:di+0x67]
0000519F  5F                pop di
000051A0  61                popa
000051A1  626272            bound sp,[bp+si+0x72]
000051A4  657600            gs jna 0x51a7
000051A7  2E6465627567      bound si,[gs:di+0x67]
000051AD  5F                pop di
000051AE  6C                insb
000051AF  696E65002E        imul bp,[bp+0x65],word 0x2e00
000051B4  6465627567        bound si,[gs:di+0x67]
000051B9  5F                pop di
000051BA  7374              jnc 0x5230
000051BC  7200              jc 0x51be
000051BE  2E6465627567      bound si,[gs:di+0x67]
000051C4  5F                pop di
000051C5  6C                insb
000051C6  696E655F73        imul bp,[bp+0x65],word 0x735f
000051CB  7472              jz 0x523f
000051CD  002E6465          add [0x6564],ch
000051D1  627567            bound si,[di+0x67]
000051D4  5F                pop di
000051D5  726E              jc 0x5245
000051D7  676C              a32 insb
000051D9  6973747300        imul si,[bp+di+0x74],word 0x73
000051DE  0000              add [bx+si],al
000051E0  0000              add [bx+si],al
000051E2  0000              add [bx+si],al
000051E4  0000              add [bx+si],al
000051E6  0000              add [bx+si],al
000051E8  0000              add [bx+si],al
000051EA  0000              add [bx+si],al
000051EC  0000              add [bx+si],al
000051EE  0000              add [bx+si],al
000051F0  0000              add [bx+si],al
000051F2  0000              add [bx+si],al
000051F4  0000              add [bx+si],al
000051F6  0000              add [bx+si],al
000051F8  0000              add [bx+si],al
000051FA  0000              add [bx+si],al
000051FC  0000              add [bx+si],al
000051FE  0000              add [bx+si],al
00005200  0000              add [bx+si],al
00005202  0000              add [bx+si],al
00005204  0000              add [bx+si],al
00005206  0000              add [bx+si],al
00005208  0000              add [bx+si],al
0000520A  0000              add [bx+si],al
0000520C  0000              add [bx+si],al
0000520E  0000              add [bx+si],al
00005210  0000              add [bx+si],al
00005212  0000              add [bx+si],al
00005214  0000              add [bx+si],al
00005216  0000              add [bx+si],al
00005218  0000              add [bx+si],al
0000521A  0000              add [bx+si],al
0000521C  0000              add [bx+si],al
0000521E  0000              add [bx+si],al
00005220  1B00              sbb ax,[bx+si]
00005222  0000              add [bx+si],al
00005224  0100              add [bx+si],ax
00005226  0000              add [bx+si],al
00005228  0200              add al,[bx+si]
0000522A  0000              add [bx+si],al
0000522C  0000              add [bx+si],al
0000522E  0000              add [bx+si],al
00005230  1803              sbb [bp+di],al
00005232  0000              add [bx+si],al
00005234  0000              add [bx+si],al
00005236  0000              add [bx+si],al
00005238  1803              sbb [bp+di],al
0000523A  0000              add [bx+si],al
0000523C  0000              add [bx+si],al
0000523E  0000              add [bx+si],al
00005240  1C00              sbb al,0x0
00005242  0000              add [bx+si],al
00005244  0000              add [bx+si],al
00005246  0000              add [bx+si],al
00005248  0000              add [bx+si],al
0000524A  0000              add [bx+si],al
0000524C  0000              add [bx+si],al
0000524E  0000              add [bx+si],al
00005250  0100              add [bx+si],ax
00005252  0000              add [bx+si],al
00005254  0000              add [bx+si],al
00005256  0000              add [bx+si],al
00005258  0000              add [bx+si],al
0000525A  0000              add [bx+si],al
0000525C  0000              add [bx+si],al
0000525E  0000              add [bx+si],al
00005260  2300              and ax,[bx+si]
00005262  0000              add [bx+si],al
00005264  07                pop es
00005265  0000              add [bx+si],al
00005267  0002              add [bp+si],al
00005269  0000              add [bx+si],al
0000526B  0000              add [bx+si],al
0000526D  0000              add [bx+si],al
0000526F  0038              add [bx+si],bh
00005271  0300              add ax,[bx+si]
00005273  0000              add [bx+si],al
00005275  0000              add [bx+si],al
00005277  0038              add [bx+si],bh
00005279  0300              add ax,[bx+si]
0000527B  0000              add [bx+si],al
0000527D  0000              add [bx+si],al
0000527F  004000            add [bx+si+0x0],al
00005282  0000              add [bx+si],al
00005284  0000              add [bx+si],al
00005286  0000              add [bx+si],al
00005288  0000              add [bx+si],al
0000528A  0000              add [bx+si],al
0000528C  0000              add [bx+si],al
0000528E  0000              add [bx+si],al
00005290  0800              or [bx+si],al
00005292  0000              add [bx+si],al
00005294  0000              add [bx+si],al
00005296  0000              add [bx+si],al
00005298  0000              add [bx+si],al
0000529A  0000              add [bx+si],al
0000529C  0000              add [bx+si],al
0000529E  0000              add [bx+si],al
000052A0  360000            add [ss:bx+si],al
000052A3  0007              add [bx],al
000052A5  0000              add [bx+si],al
000052A7  0002              add [bp+si],al
000052A9  0000              add [bx+si],al
000052AB  0000              add [bx+si],al
000052AD  0000              add [bx+si],al
000052AF  007803            add [bx+si+0x3],bh
000052B2  0000              add [bx+si],al
000052B4  0000              add [bx+si],al
000052B6  0000              add [bx+si],al
000052B8  7803              js 0x52bd
000052BA  0000              add [bx+si],al
000052BC  0000              add [bx+si],al
000052BE  0000              add [bx+si],al
000052C0  2400              and al,0x0
000052C2  0000              add [bx+si],al
000052C4  0000              add [bx+si],al
000052C6  0000              add [bx+si],al
000052C8  0000              add [bx+si],al
000052CA  0000              add [bx+si],al
000052CC  0000              add [bx+si],al
000052CE  0000              add [bx+si],al
000052D0  0400              add al,0x0
000052D2  0000              add [bx+si],al
000052D4  0000              add [bx+si],al
000052D6  0000              add [bx+si],al
000052D8  0000              add [bx+si],al
000052DA  0000              add [bx+si],al
000052DC  0000              add [bx+si],al
000052DE  0000              add [bx+si],al
000052E0  49                dec cx
000052E1  0000              add [bx+si],al
000052E3  0007              add [bx],al
000052E5  0000              add [bx+si],al
000052E7  0002              add [bp+si],al
000052E9  0000              add [bx+si],al
000052EB  0000              add [bx+si],al
000052ED  0000              add [bx+si],al
000052EF  009C0300          add [si+0x3],bl
000052F3  0000              add [bx+si],al
000052F5  0000              add [bx+si],al
000052F7  009C0300          add [si+0x3],bl
000052FB  0000              add [bx+si],al
000052FD  0000              add [bx+si],al
000052FF  0020              add [bx+si],ah
00005301  0000              add [bx+si],al
00005303  0000              add [bx+si],al
00005305  0000              add [bx+si],al
00005307  0000              add [bx+si],al
00005309  0000              add [bx+si],al
0000530B  0000              add [bx+si],al
0000530D  0000              add [bx+si],al
0000530F  0004              add [si],al
00005311  0000              add [bx+si],al
00005313  0000              add [bx+si],al
00005315  0000              add [bx+si],al
00005317  0000              add [bx+si],al
00005319  0000              add [bx+si],al
0000531B  0000              add [bx+si],al
0000531D  0000              add [bx+si],al
0000531F  005700            add [bx+0x0],dl
00005322  0000              add [bx+si],al
00005324  F6FF              idiv bh
00005326  FF6F02            jmp far [bx+0x2]
00005329  0000              add [bx+si],al
0000532B  0000              add [bx+si],al
0000532D  0000              add [bx+si],al
0000532F  00C0              add al,al
00005331  0300              add ax,[bx+si]
00005333  0000              add [bx+si],al
00005335  0000              add [bx+si],al
00005337  00C0              add al,al
00005339  0300              add ax,[bx+si]
0000533B  0000              add [bx+si],al
0000533D  0000              add [bx+si],al
0000533F  001C              add [si],bl
00005341  0000              add [bx+si],al
00005343  0000              add [bx+si],al
00005345  0000              add [bx+si],al
00005347  00060000          add [0x0],al
0000534B  0000              add [bx+si],al
0000534D  0000              add [bx+si],al
0000534F  0008              add [bx+si],cl
00005351  0000              add [bx+si],al
00005353  0000              add [bx+si],al
00005355  0000              add [bx+si],al
00005357  0000              add [bx+si],al
00005359  0000              add [bx+si],al
0000535B  0000              add [bx+si],al
0000535D  0000              add [bx+si],al
0000535F  006100            add [bx+di+0x0],ah
00005362  0000              add [bx+si],al
00005364  0B00              or ax,[bx+si]
00005366  0000              add [bx+si],al
00005368  0200              add al,[bx+si]
0000536A  0000              add [bx+si],al
0000536C  0000              add [bx+si],al
0000536E  0000              add [bx+si],al
00005370  E003              loopne 0x5375
00005372  0000              add [bx+si],al
00005374  0000              add [bx+si],al
00005376  0000              add [bx+si],al
00005378  E003              loopne 0x537d
0000537A  0000              add [bx+si],al
0000537C  0000              add [bx+si],al
0000537E  0000              add [bx+si],al
00005380  F8                clc
00005381  0100              add [bx+si],ax
00005383  0000              add [bx+si],al
00005385  0000              add [bx+si],al
00005387  0007              add [bx],al
00005389  0000              add [bx+si],al
0000538B  0001              add [bx+di],al
0000538D  0000              add [bx+si],al
0000538F  0008              add [bx+si],cl
00005391  0000              add [bx+si],al
00005393  0000              add [bx+si],al
00005395  0000              add [bx+si],al
00005397  0018              add [bx+si],bl
00005399  0000              add [bx+si],al
0000539B  0000              add [bx+si],al
0000539D  0000              add [bx+si],al
0000539F  006900            add [bx+di+0x0],ch
000053A2  0000              add [bx+si],al
000053A4  0300              add ax,[bx+si]
000053A6  0000              add [bx+si],al
000053A8  0200              add al,[bx+si]
000053AA  0000              add [bx+si],al
000053AC  0000              add [bx+si],al
000053AE  0000              add [bx+si],al
000053B0  D805              fadd dword [di]
000053B2  0000              add [bx+si],al
000053B4  0000              add [bx+si],al
000053B6  0000              add [bx+si],al
000053B8  D805              fadd dword [di]
000053BA  0000              add [bx+si],al
000053BC  0000              add [bx+si],al
000053BE  0000              add [bx+si],al
000053C0  0101              add [bx+di],ax
000053C2  0000              add [bx+si],al
000053C4  0000              add [bx+si],al
000053C6  0000              add [bx+si],al
000053C8  0000              add [bx+si],al
000053CA  0000              add [bx+si],al
000053CC  0000              add [bx+si],al
000053CE  0000              add [bx+si],al
000053D0  0100              add [bx+si],ax
000053D2  0000              add [bx+si],al
000053D4  0000              add [bx+si],al
000053D6  0000              add [bx+si],al
000053D8  0000              add [bx+si],al
000053DA  0000              add [bx+si],al
000053DC  0000              add [bx+si],al
000053DE  0000              add [bx+si],al
000053E0  7100              jno 0x53e2
000053E2  0000              add [bx+si],al
000053E4  FF                db 0xff
000053E5  FF                db 0xff
000053E6  FF6F02            jmp far [bx+0x2]
000053E9  0000              add [bx+si],al
000053EB  0000              add [bx+si],al
000053ED  0000              add [bx+si],al
000053EF  00DA              add dl,bl
000053F1  06                push es
000053F2  0000              add [bx+si],al
000053F4  0000              add [bx+si],al
000053F6  0000              add [bx+si],al
000053F8  DA060000          fiadd dword [0x0]
000053FC  0000              add [bx+si],al
000053FE  0000              add [bx+si],al
00005400  2A00              sub al,[bx+si]
00005402  0000              add [bx+si],al
00005404  0000              add [bx+si],al
00005406  0000              add [bx+si],al
00005408  06                push es
00005409  0000              add [bx+si],al
0000540B  0000              add [bx+si],al
0000540D  0000              add [bx+si],al
0000540F  0002              add [bp+si],al
00005411  0000              add [bx+si],al
00005413  0000              add [bx+si],al
00005415  0000              add [bx+si],al
00005417  0002              add [bp+si],al
00005419  0000              add [bx+si],al
0000541B  0000              add [bx+si],al
0000541D  0000              add [bx+si],al
0000541F  007E00            add [bp+0x0],bh
00005422  0000              add [bx+si],al
00005424  FE                db 0xfe
00005425  FF                db 0xff
00005426  FF6F02            jmp far [bx+0x2]
00005429  0000              add [bx+si],al
0000542B  0000              add [bx+si],al
0000542D  0000              add [bx+si],al
0000542F  0008              add [bx+si],cl
00005431  07                pop es
00005432  0000              add [bx+si],al
00005434  0000              add [bx+si],al
00005436  0000              add [bx+si],al
00005438  0807              or [bx],al
0000543A  0000              add [bx+si],al
0000543C  0000              add [bx+si],al
0000543E  0000              add [bx+si],al
00005440  50                push ax
00005441  0000              add [bx+si],al
00005443  0000              add [bx+si],al
00005445  0000              add [bx+si],al
00005447  0007              add [bx],al
00005449  0000              add [bx+si],al
0000544B  0001              add [bx+di],al
0000544D  0000              add [bx+si],al
0000544F  0008              add [bx+si],cl
00005451  0000              add [bx+si],al
00005453  0000              add [bx+si],al
00005455  0000              add [bx+si],al
00005457  0000              add [bx+si],al
00005459  0000              add [bx+si],al
0000545B  0000              add [bx+si],al
0000545D  0000              add [bx+si],al
0000545F  008D0000          add [di+0x0],cl
00005463  0004              add [si],al
00005465  0000              add [bx+si],al
00005467  0002              add [bp+si],al
00005469  0000              add [bx+si],al
0000546B  0000              add [bx+si],al
0000546D  0000              add [bx+si],al
0000546F  005807            add [bx+si+0x7],bl
00005472  0000              add [bx+si],al
00005474  0000              add [bx+si],al
00005476  0000              add [bx+si],al
00005478  58                pop ax
00005479  07                pop es
0000547A  0000              add [bx+si],al
0000547C  0000              add [bx+si],al
0000547E  0000              add [bx+si],al
00005480  C00000            rol byte [bx+si],byte 0x0
00005483  0000              add [bx+si],al
00005485  0000              add [bx+si],al
00005487  00060000          add [0x0],al
0000548B  0000              add [bx+si],al
0000548D  0000              add [bx+si],al
0000548F  0008              add [bx+si],cl
00005491  0000              add [bx+si],al
00005493  0000              add [bx+si],al
00005495  0000              add [bx+si],al
00005497  0018              add [bx+si],bl
00005499  0000              add [bx+si],al
0000549B  0000              add [bx+si],al
0000549D  0000              add [bx+si],al
0000549F  00970000          add [bx+0x0],dl
000054A3  0004              add [si],al
000054A5  0000              add [bx+si],al
000054A7  004200            add [bp+si+0x0],al
000054AA  0000              add [bx+si],al
000054AC  0000              add [bx+si],al
000054AE  0000              add [bx+si],al
000054B0  1808              sbb [bx+si],cl
000054B2  0000              add [bx+si],al
000054B4  0000              add [bx+si],al
000054B6  0000              add [bx+si],al
000054B8  1808              sbb [bx+si],cl
000054BA  0000              add [bx+si],al
000054BC  0000              add [bx+si],al
000054BE  0000              add [bx+si],al
000054C0  680100            push word 0x1
000054C3  0000              add [bx+si],al
000054C5  0000              add [bx+si],al
000054C7  00060000          add [0x0],al
000054CB  0017              add [bx],dl
000054CD  0000              add [bx+si],al
000054CF  0008              add [bx+si],cl
000054D1  0000              add [bx+si],al
000054D3  0000              add [bx+si],al
000054D5  0000              add [bx+si],al
000054D7  0018              add [bx+si],bl
000054D9  0000              add [bx+si],al
000054DB  0000              add [bx+si],al
000054DD  0000              add [bx+si],al
000054DF  00A10000          add [bx+di+0x0],ah
000054E3  0001              add [bx+di],al
000054E5  0000              add [bx+si],al
000054E7  00060000          add [0x0],al
000054EB  0000              add [bx+si],al
000054ED  0000              add [bx+si],al
000054EF  0000              add [bx+si],al
000054F1  1000              adc [bx+si],al
000054F3  0000              add [bx+si],al
000054F5  0000              add [bx+si],al
000054F7  0000              add [bx+si],al
000054F9  1000              adc [bx+si],al
000054FB  0000              add [bx+si],al
000054FD  0000              add [bx+si],al
000054FF  001B              add [bp+di],bl
00005501  0000              add [bx+si],al
00005503  0000              add [bx+si],al
00005505  0000              add [bx+si],al
00005507  0000              add [bx+si],al
00005509  0000              add [bx+si],al
0000550B  0000              add [bx+si],al
0000550D  0000              add [bx+si],al
0000550F  0004              add [si],al
00005511  0000              add [bx+si],al
00005513  0000              add [bx+si],al
00005515  0000              add [bx+si],al
00005517  0000              add [bx+si],al
00005519  0000              add [bx+si],al
0000551B  0000              add [bx+si],al
0000551D  0000              add [bx+si],al
0000551F  009C0000          add [si+0x0],bl
00005523  0001              add [bx+di],al
00005525  0000              add [bx+si],al
00005527  00060000          add [0x0],al
0000552B  0000              add [bx+si],al
0000552D  0000              add [bx+si],al
0000552F  0020              add [bx+si],ah
00005531  1000              adc [bx+si],al
00005533  0000              add [bx+si],al
00005535  0000              add [bx+si],al
00005537  0020              add [bx+si],ah
00005539  1000              adc [bx+si],al
0000553B  0000              add [bx+si],al
0000553D  0000              add [bx+si],al
0000553F  0000              add [bx+si],al
00005541  0100              add [bx+si],ax
00005543  0000              add [bx+si],al
00005545  0000              add [bx+si],al
00005547  0000              add [bx+si],al
00005549  0000              add [bx+si],al
0000554B  0000              add [bx+si],al
0000554D  0000              add [bx+si],al
0000554F  0010              add [bx+si],dl
00005551  0000              add [bx+si],al
00005553  0000              add [bx+si],al
00005555  0000              add [bx+si],al
00005557  0010              add [bx+si],dl
00005559  0000              add [bx+si],al
0000555B  0000              add [bx+si],al
0000555D  0000              add [bx+si],al
0000555F  00A70000          add [bx+0x0],ah
00005563  0001              add [bx+di],al
00005565  0000              add [bx+si],al
00005567  00060000          add [0x0],al
0000556B  0000              add [bx+si],al
0000556D  0000              add [bx+si],al
0000556F  0020              add [bx+si],ah
00005571  1100              adc [bx+si],ax
00005573  0000              add [bx+si],al
00005575  0000              add [bx+si],al
00005577  0020              add [bx+si],ah
00005579  1100              adc [bx+si],ax
0000557B  0000              add [bx+si],al
0000557D  0000              add [bx+si],al
0000557F  004F0E            add [bx+0xe],cl
00005582  0000              add [bx+si],al
00005584  0000              add [bx+si],al
00005586  0000              add [bx+si],al
00005588  0000              add [bx+si],al
0000558A  0000              add [bx+si],al
0000558C  0000              add [bx+si],al
0000558E  0000              add [bx+si],al
00005590  1000              adc [bx+si],al
00005592  0000              add [bx+si],al
00005594  0000              add [bx+si],al
00005596  0000              add [bx+si],al
00005598  0000              add [bx+si],al
0000559A  0000              add [bx+si],al
0000559C  0000              add [bx+si],al
0000559E  0000              add [bx+si],al
000055A0  AD                lodsw
000055A1  0000              add [bx+si],al
000055A3  0001              add [bx+di],al
000055A5  0000              add [bx+si],al
000055A7  00060000          add [0x0],al
000055AB  0000              add [bx+si],al
000055AD  0000              add [bx+si],al
000055AF  00701F            add [bx+si+0x1f],dh
000055B2  0000              add [bx+si],al
000055B4  0000              add [bx+si],al
000055B6  0000              add [bx+si],al
000055B8  701F              jo 0x55d9
000055BA  0000              add [bx+si],al
000055BC  0000              add [bx+si],al
000055BE  0000              add [bx+si],al
000055C0  0D0000            or ax,0x0
000055C3  0000              add [bx+si],al
000055C5  0000              add [bx+si],al
000055C7  0000              add [bx+si],al
000055C9  0000              add [bx+si],al
000055CB  0000              add [bx+si],al
000055CD  0000              add [bx+si],al
000055CF  0004              add [si],al
000055D1  0000              add [bx+si],al
000055D3  0000              add [bx+si],al
000055D5  0000              add [bx+si],al
000055D7  0000              add [bx+si],al
000055D9  0000              add [bx+si],al
000055DB  0000              add [bx+si],al
000055DD  0000              add [bx+si],al
000055DF  00B30000          add [bp+di+0x0],dh
000055E3  0001              add [bx+di],al
000055E5  0000              add [bx+si],al
000055E7  0002              add [bp+si],al
000055E9  0000              add [bx+si],al
000055EB  0000              add [bx+si],al
000055ED  0000              add [bx+si],al
000055EF  0000              add [bx+si],al
000055F1  2000              and [bx+si],al
000055F3  0000              add [bx+si],al
000055F5  0000              add [bx+si],al
000055F7  0000              add [bx+si],al
000055F9  2000              and [bx+si],al
000055FB  0000              add [bx+si],al
000055FD  0000              add [bx+si],al
000055FF  00AA0200          add [bp+si+0x2],ch
00005603  0000              add [bx+si],al
00005605  0000              add [bx+si],al
00005607  0000              add [bx+si],al
00005609  0000              add [bx+si],al
0000560B  0000              add [bx+si],al
0000560D  0000              add [bx+si],al
0000560F  0008              add [bx+si],cl
00005611  0000              add [bx+si],al
00005613  0000              add [bx+si],al
00005615  0000              add [bx+si],al
00005617  0000              add [bx+si],al
00005619  0000              add [bx+si],al
0000561B  0000              add [bx+si],al
0000561D  0000              add [bx+si],al
0000561F  00BB0000          add [bp+di+0x0],bh
00005623  0001              add [bx+di],al
00005625  0000              add [bx+si],al
00005627  0002              add [bp+si],al
00005629  0000              add [bx+si],al
0000562B  0000              add [bx+si],al
0000562D  0000              add [bx+si],al
0000562F  00AC2200          add [si+0x22],ch
00005633  0000              add [bx+si],al
00005635  0000              add [bx+si],al
00005637  00AC2200          add [si+0x22],ch
0000563B  0000              add [bx+si],al
0000563D  0000              add [bx+si],al
0000563F  00A40000          add [si+0x0],ah
00005643  0000              add [bx+si],al
00005645  0000              add [bx+si],al
00005647  0000              add [bx+si],al
00005649  0000              add [bx+si],al
0000564B  0000              add [bx+si],al
0000564D  0000              add [bx+si],al
0000564F  0004              add [si],al
00005651  0000              add [bx+si],al
00005653  0000              add [bx+si],al
00005655  0000              add [bx+si],al
00005657  0000              add [bx+si],al
00005659  0000              add [bx+si],al
0000565B  0000              add [bx+si],al
0000565D  0000              add [bx+si],al
0000565F  00C9              add cl,cl
00005661  0000              add [bx+si],al
00005663  0001              add [bx+di],al
00005665  0000              add [bx+si],al
00005667  0002              add [bp+si],al
00005669  0000              add [bx+si],al
0000566B  0000              add [bx+si],al
0000566D  0000              add [bx+si],al
0000566F  005023            add [bx+si+0x23],dl
00005672  0000              add [bx+si],al
00005674  0000              add [bx+si],al
00005676  0000              add [bx+si],al
00005678  50                push ax
00005679  2300              and ax,[bx+si]
0000567B  0000              add [bx+si],al
0000567D  0000              add [bx+si],al
0000567F  007C02            add [si+0x2],bh
00005682  0000              add [bx+si],al
00005684  0000              add [bx+si],al
00005686  0000              add [bx+si],al
00005688  0000              add [bx+si],al
0000568A  0000              add [bx+si],al
0000568C  0000              add [bx+si],al
0000568E  0000              add [bx+si],al
00005690  0800              or [bx+si],al
00005692  0000              add [bx+si],al
00005694  0000              add [bx+si],al
00005696  0000              add [bx+si],al
00005698  0000              add [bx+si],al
0000569A  0000              add [bx+si],al
0000569C  0000              add [bx+si],al
0000569E  0000              add [bx+si],al
000056A0  D300              rol word [bx+si],cl
000056A2  0000              add [bx+si],al
000056A4  0E                push cs
000056A5  0000              add [bx+si],al
000056A7  0003              add [bp+di],al
000056A9  0000              add [bx+si],al
000056AB  0000              add [bx+si],al
000056AD  0000              add [bx+si],al
000056AF  00D0              add al,dl
000056B1  3D0000            cmp ax,0x0
000056B4  0000              add [bx+si],al
000056B6  0000              add [bx+si],al
000056B8  D02D              shr byte [di],1
000056BA  0000              add [bx+si],al
000056BC  0000              add [bx+si],al
000056BE  0000              add [bx+si],al
000056C0  0800              or [bx+si],al
000056C2  0000              add [bx+si],al
000056C4  0000              add [bx+si],al
000056C6  0000              add [bx+si],al
000056C8  0000              add [bx+si],al
000056CA  0000              add [bx+si],al
000056CC  0000              add [bx+si],al
000056CE  0000              add [bx+si],al
000056D0  0800              or [bx+si],al
000056D2  0000              add [bx+si],al
000056D4  0000              add [bx+si],al
000056D6  0000              add [bx+si],al
000056D8  0800              or [bx+si],al
000056DA  0000              add [bx+si],al
000056DC  0000              add [bx+si],al
000056DE  0000              add [bx+si],al
000056E0  DF00              fild word [bx+si]
000056E2  0000              add [bx+si],al
000056E4  0F0000            sldt [bx+si]
000056E7  0003              add [bp+di],al
000056E9  0000              add [bx+si],al
000056EB  0000              add [bx+si],al
000056ED  0000              add [bx+si],al
000056EF  00D8              add al,bl
000056F1  3D0000            cmp ax,0x0
000056F4  0000              add [bx+si],al
000056F6  0000              add [bx+si],al
000056F8  D82D              fsubr dword [di]
000056FA  0000              add [bx+si],al
000056FC  0000              add [bx+si],al
000056FE  0000              add [bx+si],al
00005700  0800              or [bx+si],al
00005702  0000              add [bx+si],al
00005704  0000              add [bx+si],al
00005706  0000              add [bx+si],al
00005708  0000              add [bx+si],al
0000570A  0000              add [bx+si],al
0000570C  0000              add [bx+si],al
0000570E  0000              add [bx+si],al
00005710  0800              or [bx+si],al
00005712  0000              add [bx+si],al
00005714  0000              add [bx+si],al
00005716  0000              add [bx+si],al
00005718  0800              or [bx+si],al
0000571A  0000              add [bx+si],al
0000571C  0000              add [bx+si],al
0000571E  0000              add [bx+si],al
00005720  EB00              jmp short 0x5722
00005722  0000              add [bx+si],al
00005724  06                push es
00005725  0000              add [bx+si],al
00005727  0003              add [bp+di],al
00005729  0000              add [bx+si],al
0000572B  0000              add [bx+si],al
0000572D  0000              add [bx+si],al
0000572F  00E0              add al,ah
00005731  3D0000            cmp ax,0x0
00005734  0000              add [bx+si],al
00005736  0000              add [bx+si],al
00005738  E02D              loopne 0x5767
0000573A  0000              add [bx+si],al
0000573C  0000              add [bx+si],al
0000573E  0000              add [bx+si],al
00005740  E001              loopne 0x5743
00005742  0000              add [bx+si],al
00005744  0000              add [bx+si],al
00005746  0000              add [bx+si],al
00005748  07                pop es
00005749  0000              add [bx+si],al
0000574B  0000              add [bx+si],al
0000574D  0000              add [bx+si],al
0000574F  0008              add [bx+si],cl
00005751  0000              add [bx+si],al
00005753  0000              add [bx+si],al
00005755  0000              add [bx+si],al
00005757  0010              add [bx+si],dl
00005759  0000              add [bx+si],al
0000575B  0000              add [bx+si],al
0000575D  0000              add [bx+si],al
0000575F  00F4              add ah,dh
00005761  0000              add [bx+si],al
00005763  0001              add [bx+di],al
00005765  0000              add [bx+si],al
00005767  0003              add [bp+di],al
00005769  0000              add [bx+si],al
0000576B  0000              add [bx+si],al
0000576D  0000              add [bx+si],al
0000576F  00C0              add al,al
00005771  3F                aas
00005772  0000              add [bx+si],al
00005774  0000              add [bx+si],al
00005776  0000              add [bx+si],al
00005778  C02F00            shr byte [bx],byte 0x0
0000577B  0000              add [bx+si],al
0000577D  0000              add [bx+si],al
0000577F  0028              add [bx+si],ch
00005781  0000              add [bx+si],al
00005783  0000              add [bx+si],al
00005785  0000              add [bx+si],al
00005787  0000              add [bx+si],al
00005789  0000              add [bx+si],al
0000578B  0000              add [bx+si],al
0000578D  0000              add [bx+si],al
0000578F  0008              add [bx+si],cl
00005791  0000              add [bx+si],al
00005793  0000              add [bx+si],al
00005795  0000              add [bx+si],al
00005797  0008              add [bx+si],cl
00005799  0000              add [bx+si],al
0000579B  0000              add [bx+si],al
0000579D  0000              add [bx+si],al
0000579F  00F9              add cl,bh
000057A1  0000              add [bx+si],al
000057A3  0001              add [bx+di],al
000057A5  0000              add [bx+si],al
000057A7  0003              add [bp+di],al
000057A9  0000              add [bx+si],al
000057AB  0000              add [bx+si],al
000057AD  0000              add [bx+si],al
000057AF  00E8              add al,ch
000057B1  3F                aas
000057B2  0000              add [bx+si],al
000057B4  0000              add [bx+si],al
000057B6  0000              add [bx+si],al
000057B8  E82F00            call 0x57ea
000057BB  0000              add [bx+si],al
000057BD  0000              add [bx+si],al
000057BF  00900000          add [bx+si+0x0],dl
000057C3  0000              add [bx+si],al
000057C5  0000              add [bx+si],al
000057C7  0000              add [bx+si],al
000057C9  0000              add [bx+si],al
000057CB  0000              add [bx+si],al
000057CD  0000              add [bx+si],al
000057CF  0008              add [bx+si],cl
000057D1  0000              add [bx+si],al
000057D3  0000              add [bx+si],al
000057D5  0000              add [bx+si],al
000057D7  0008              add [bx+si],cl
000057D9  0000              add [bx+si],al
000057DB  0000              add [bx+si],al
000057DD  0000              add [bx+si],al
000057DF  0002              add [bp+si],al
000057E1  0100              add [bx+si],ax
000057E3  0001              add [bx+di],al
000057E5  0000              add [bx+si],al
000057E7  0003              add [bp+di],al
000057E9  0000              add [bx+si],al
000057EB  0000              add [bx+si],al
000057ED  0000              add [bx+si],al
000057EF  007840            add [bx+si+0x40],bh
000057F2  0000              add [bx+si],al
000057F4  0000              add [bx+si],al
000057F6  0000              add [bx+si],al
000057F8  7830              js 0x582a
000057FA  0000              add [bx+si],al
000057FC  0000              add [bx+si],al
000057FE  0000              add [bx+si],al
00005800  1000              adc [bx+si],al
00005802  0000              add [bx+si],al
00005804  0000              add [bx+si],al
00005806  0000              add [bx+si],al
00005808  0000              add [bx+si],al
0000580A  0000              add [bx+si],al
0000580C  0000              add [bx+si],al
0000580E  0000              add [bx+si],al
00005810  0800              or [bx+si],al
00005812  0000              add [bx+si],al
00005814  0000              add [bx+si],al
00005816  0000              add [bx+si],al
00005818  0000              add [bx+si],al
0000581A  0000              add [bx+si],al
0000581C  0000              add [bx+si],al
0000581E  0000              add [bx+si],al
00005820  0801              or [bx+di],al
00005822  0000              add [bx+si],al
00005824  0800              or [bx+si],al
00005826  0000              add [bx+si],al
00005828  0300              add ax,[bx+si]
0000582A  0000              add [bx+si],al
0000582C  0000              add [bx+si],al
0000582E  0000              add [bx+si],al
00005830  884000            mov [bx+si+0x0],al
00005833  0000              add [bx+si],al
00005835  0000              add [bx+si],al
00005837  00883000          add [bx+si+0x30],cl
0000583B  0000              add [bx+si],al
0000583D  0000              add [bx+si],al
0000583F  0008              add [bx+si],cl
00005841  0000              add [bx+si],al
00005843  0000              add [bx+si],al
00005845  0000              add [bx+si],al
00005847  0000              add [bx+si],al
00005849  0000              add [bx+si],al
0000584B  0000              add [bx+si],al
0000584D  0000              add [bx+si],al
0000584F  0001              add [bx+di],al
00005851  0000              add [bx+si],al
00005853  0000              add [bx+si],al
00005855  0000              add [bx+si],al
00005857  0000              add [bx+si],al
00005859  0000              add [bx+si],al
0000585B  0000              add [bx+si],al
0000585D  0000              add [bx+si],al
0000585F  000D              add [di],cl
00005861  0100              add [bx+si],ax
00005863  0001              add [bx+di],al
00005865  0000              add [bx+si],al
00005867  0030              add [bx+si],dh
00005869  0000              add [bx+si],al
0000586B  0000              add [bx+si],al
0000586D  0000              add [bx+si],al
0000586F  0000              add [bx+si],al
00005871  0000              add [bx+si],al
00005873  0000              add [bx+si],al
00005875  0000              add [bx+si],al
00005877  00883000          add [bx+si+0x30],cl
0000587B  0000              add [bx+si],al
0000587D  0000              add [bx+si],al
0000587F  00360000          add [0x0],dh
00005883  0000              add [bx+si],al
00005885  0000              add [bx+si],al
00005887  0000              add [bx+si],al
00005889  0000              add [bx+si],al
0000588B  0000              add [bx+si],al
0000588D  0000              add [bx+si],al
0000588F  0001              add [bx+di],al
00005891  0000              add [bx+si],al
00005893  0000              add [bx+si],al
00005895  0000              add [bx+si],al
00005897  0001              add [bx+di],al
00005899  0000              add [bx+si],al
0000589B  0000              add [bx+si],al
0000589D  0000              add [bx+si],al
0000589F  00160100          add [0x1],dl
000058A3  0001              add [bx+di],al
000058A5  0000              add [bx+si],al
000058A7  0000              add [bx+si],al
000058A9  0000              add [bx+si],al
000058AB  0000              add [bx+si],al
000058AD  0000              add [bx+si],al
000058AF  0000              add [bx+si],al
000058B1  0000              add [bx+si],al
000058B3  0000              add [bx+si],al
000058B5  0000              add [bx+si],al
000058B7  00BE3000          add [bp+0x30],bh
000058BB  0000              add [bx+si],al
000058BD  0000              add [bx+si],al
000058BF  0030              add [bx+si],dh
000058C1  0000              add [bx+si],al
000058C3  0000              add [bx+si],al
000058C5  0000              add [bx+si],al
000058C7  0000              add [bx+si],al
000058C9  0000              add [bx+si],al
000058CB  0000              add [bx+si],al
000058CD  0000              add [bx+si],al
000058CF  0001              add [bx+di],al
000058D1  0000              add [bx+si],al
000058D3  0000              add [bx+si],al
000058D5  0000              add [bx+si],al
000058D7  0000              add [bx+si],al
000058D9  0000              add [bx+si],al
000058DB  0000              add [bx+si],al
000058DD  0000              add [bx+si],al
000058DF  0025              add [di],ah
000058E1  0100              add [bx+si],ax
000058E3  0001              add [bx+di],al
000058E5  0000              add [bx+si],al
000058E7  0000              add [bx+si],al
000058E9  0000              add [bx+si],al
000058EB  0000              add [bx+si],al
000058ED  0000              add [bx+si],al
000058EF  0000              add [bx+si],al
000058F1  0000              add [bx+si],al
000058F3  0000              add [bx+si],al
000058F5  0000              add [bx+si],al
000058F7  00EE              add dh,ch
000058F9  3000              xor [bx+si],al
000058FB  0000              add [bx+si],al
000058FD  0000              add [bx+si],al
000058FF  0039              add [bx+di],bh
00005901  0B00              or ax,[bx+si]
00005903  0000              add [bx+si],al
00005905  0000              add [bx+si],al
00005907  0000              add [bx+si],al
00005909  0000              add [bx+si],al
0000590B  0000              add [bx+si],al
0000590D  0000              add [bx+si],al
0000590F  0001              add [bx+di],al
00005911  0000              add [bx+si],al
00005913  0000              add [bx+si],al
00005915  0000              add [bx+si],al
00005917  0000              add [bx+si],al
00005919  0000              add [bx+si],al
0000591B  0000              add [bx+si],al
0000591D  0000              add [bx+si],al
0000591F  0031              add [bx+di],dh
00005921  0100              add [bx+si],ax
00005923  0001              add [bx+di],al
00005925  0000              add [bx+si],al
00005927  0000              add [bx+si],al
00005929  0000              add [bx+si],al
0000592B  0000              add [bx+si],al
0000592D  0000              add [bx+si],al
0000592F  0000              add [bx+si],al
00005931  0000              add [bx+si],al
00005933  0000              add [bx+si],al
00005935  0000              add [bx+si],al
00005937  0027              add [bx],ah
00005939  3C00              cmp al,0x0
0000593B  0000              add [bx+si],al
0000593D  0000              add [bx+si],al
0000593F  00FD              add ch,bh
00005941  0200              add al,[bx+si]
00005943  0000              add [bx+si],al
00005945  0000              add [bx+si],al
00005947  0000              add [bx+si],al
00005949  0000              add [bx+si],al
0000594B  0000              add [bx+si],al
0000594D  0000              add [bx+si],al
0000594F  0001              add [bx+di],al
00005951  0000              add [bx+si],al
00005953  0000              add [bx+si],al
00005955  0000              add [bx+si],al
00005957  0000              add [bx+si],al
00005959  0000              add [bx+si],al
0000595B  0000              add [bx+si],al
0000595D  0000              add [bx+si],al
0000595F  003F              add [bx],bh
00005961  0100              add [bx+si],ax
00005963  0001              add [bx+di],al
00005965  0000              add [bx+si],al
00005967  0000              add [bx+si],al
00005969  0000              add [bx+si],al
0000596B  0000              add [bx+si],al
0000596D  0000              add [bx+si],al
0000596F  0000              add [bx+si],al
00005971  0000              add [bx+si],al
00005973  0000              add [bx+si],al
00005975  0000              add [bx+si],al
00005977  0024              add [si],ah
00005979  3F                aas
0000597A  0000              add [bx+si],al
0000597C  0000              add [bx+si],al
0000597E  0000              add [bx+si],al
00005980  7104              jno 0x5986
00005982  0000              add [bx+si],al
00005984  0000              add [bx+si],al
00005986  0000              add [bx+si],al
00005988  0000              add [bx+si],al
0000598A  0000              add [bx+si],al
0000598C  0000              add [bx+si],al
0000598E  0000              add [bx+si],al
00005990  0100              add [bx+si],ax
00005992  0000              add [bx+si],al
00005994  0000              add [bx+si],al
00005996  0000              add [bx+si],al
00005998  0000              add [bx+si],al
0000599A  0000              add [bx+si],al
0000599C  0000              add [bx+si],al
0000599E  0000              add [bx+si],al
000059A0  4B                dec bx
000059A1  0100              add [bx+si],ax
000059A3  0001              add [bx+di],al
000059A5  0000              add [bx+si],al
000059A7  0030              add [bx+si],dh
000059A9  0000              add [bx+si],al
000059AB  0000              add [bx+si],al
000059AD  0000              add [bx+si],al
000059AF  0000              add [bx+si],al
000059B1  0000              add [bx+si],al
000059B3  0000              add [bx+si],al
000059B5  0000              add [bx+si],al
000059B7  00954300          add [di+0x43],dl
000059BB  0000              add [bx+si],al
000059BD  0000              add [bx+si],al
000059BF  00FE              add dh,bh
000059C1  0300              add ax,[bx+si]
000059C3  0000              add [bx+si],al
000059C5  0000              add [bx+si],al
000059C7  0000              add [bx+si],al
000059C9  0000              add [bx+si],al
000059CB  0000              add [bx+si],al
000059CD  0000              add [bx+si],al
000059CF  0001              add [bx+di],al
000059D1  0000              add [bx+si],al
000059D3  0000              add [bx+si],al
000059D5  0000              add [bx+si],al
000059D7  0001              add [bx+di],al
000059D9  0000              add [bx+si],al
000059DB  0000              add [bx+si],al
000059DD  0000              add [bx+si],al
000059DF  005601            add [bp+0x1],dl
000059E2  0000              add [bx+si],al
000059E4  0100              add [bx+si],ax
000059E6  0000              add [bx+si],al
000059E8  3000              xor [bx+si],al
000059EA  0000              add [bx+si],al
000059EC  0000              add [bx+si],al
000059EE  0000              add [bx+si],al
000059F0  0000              add [bx+si],al
000059F2  0000              add [bx+si],al
000059F4  0000              add [bx+si],al
000059F6  0000              add [bx+si],al
000059F8  93                xchg ax,bx
000059F9  47                inc di
000059FA  0000              add [bx+si],al
000059FC  0000              add [bx+si],al
000059FE  0000              add [bx+si],al
00005A00  CD00              int 0x0
00005A02  0000              add [bx+si],al
00005A04  0000              add [bx+si],al
00005A06  0000              add [bx+si],al
00005A08  0000              add [bx+si],al
00005A0A  0000              add [bx+si],al
00005A0C  0000              add [bx+si],al
00005A0E  0000              add [bx+si],al
00005A10  0100              add [bx+si],ax
00005A12  0000              add [bx+si],al
00005A14  0000              add [bx+si],al
00005A16  0000              add [bx+si],al
00005A18  0100              add [bx+si],ax
00005A1A  0000              add [bx+si],al
00005A1C  0000              add [bx+si],al
00005A1E  0000              add [bx+si],al
00005A20  660100            add [bx+si],eax
00005A23  0001              add [bx+di],al
00005A25  0000              add [bx+si],al
00005A27  0000              add [bx+si],al
00005A29  0000              add [bx+si],al
00005A2B  0000              add [bx+si],al
00005A2D  0000              add [bx+si],al
00005A2F  0000              add [bx+si],al
00005A31  0000              add [bx+si],al
00005A33  0000              add [bx+si],al
00005A35  0000              add [bx+si],al
00005A37  006048            add [bx+si+0x48],ah
00005A3A  0000              add [bx+si],al
00005A3C  0000              add [bx+si],al
00005A3E  0000              add [bx+si],al
00005A40  17                pop ss
00005A41  0000              add [bx+si],al
00005A43  0000              add [bx+si],al
00005A45  0000              add [bx+si],al
00005A47  0000              add [bx+si],al
00005A49  0000              add [bx+si],al
00005A4B  0000              add [bx+si],al
00005A4D  0000              add [bx+si],al
00005A4F  0001              add [bx+di],al
00005A51  0000              add [bx+si],al
00005A53  0000              add [bx+si],al
00005A55  0000              add [bx+si],al
00005A57  0000              add [bx+si],al
00005A59  0000              add [bx+si],al
00005A5B  0000              add [bx+si],al
00005A5D  0000              add [bx+si],al
00005A5F  0001              add [bx+di],al
00005A61  0000              add [bx+si],al
00005A63  0002              add [bp+si],al
00005A65  0000              add [bx+si],al
00005A67  0000              add [bx+si],al
00005A69  0000              add [bx+si],al
00005A6B  0000              add [bx+si],al
00005A6D  0000              add [bx+si],al
00005A6F  0000              add [bx+si],al
00005A71  0000              add [bx+si],al
00005A73  0000              add [bx+si],al
00005A75  0000              add [bx+si],al
00005A77  007848            add [bx+si+0x48],bh
00005A7A  0000              add [bx+si],al
00005A7C  0000              add [bx+si],al
00005A7E  0000              add [bx+si],al
00005A80  1005              adc [di],al
00005A82  0000              add [bx+si],al
00005A84  0000              add [bx+si],al
00005A86  0000              add [bx+si],al
00005A88  2300              and ax,[bx+si]
00005A8A  0000              add [bx+si],al
00005A8C  06                push es
00005A8D  0000              add [bx+si],al
00005A8F  0008              add [bx+si],cl
00005A91  0000              add [bx+si],al
00005A93  0000              add [bx+si],al
00005A95  0000              add [bx+si],al
00005A97  0018              add [bx+si],bl
00005A99  0000              add [bx+si],al
00005A9B  0000              add [bx+si],al
00005A9D  0000              add [bx+si],al
00005A9F  0009              add [bx+di],cl
00005AA1  0000              add [bx+si],al
00005AA3  0003              add [bp+di],al
00005AA5  0000              add [bx+si],al
00005AA7  0000              add [bx+si],al
00005AA9  0000              add [bx+si],al
00005AAB  0000              add [bx+si],al
00005AAD  0000              add [bx+si],al
00005AAF  0000              add [bx+si],al
00005AB1  0000              add [bx+si],al
00005AB3  0000              add [bx+si],al
00005AB5  0000              add [bx+si],al
00005AB7  00884D00          add [bx+si+0x4d],cl
00005ABB  0000              add [bx+si],al
00005ABD  0000              add [bx+si],al
00005ABF  00E0              add al,ah
00005AC1  0200              add al,[bx+si]
00005AC3  0000              add [bx+si],al
00005AC5  0000              add [bx+si],al
00005AC7  0000              add [bx+si],al
00005AC9  0000              add [bx+si],al
00005ACB  0000              add [bx+si],al
00005ACD  0000              add [bx+si],al
00005ACF  0001              add [bx+di],al
00005AD1  0000              add [bx+si],al
00005AD3  0000              add [bx+si],al
00005AD5  0000              add [bx+si],al
00005AD7  0000              add [bx+si],al
00005AD9  0000              add [bx+si],al
00005ADB  0000              add [bx+si],al
00005ADD  0000              add [bx+si],al
00005ADF  0011              add [bx+di],dl
00005AE1  0000              add [bx+si],al
00005AE3  0003              add [bp+di],al
00005AE5  0000              add [bx+si],al
00005AE7  0000              add [bx+si],al
00005AE9  0000              add [bx+si],al
00005AEB  0000              add [bx+si],al
00005AED  0000              add [bx+si],al
00005AEF  0000              add [bx+si],al
00005AF1  0000              add [bx+si],al
00005AF3  0000              add [bx+si],al
00005AF5  0000              add [bx+si],al
00005AF7  006850            add [bx+si+0x50],ch
00005AFA  0000              add [bx+si],al
00005AFC  0000              add [bx+si],al
00005AFE  0000              add [bx+si],al
00005B00  7601              jna 0x5b03
00005B02  0000              add [bx+si],al
00005B04  0000              add [bx+si],al
00005B06  0000              add [bx+si],al
00005B08  0000              add [bx+si],al
00005B0A  0000              add [bx+si],al
00005B0C  0000              add [bx+si],al
00005B0E  0000              add [bx+si],al
00005B10  0100              add [bx+si],ax
00005B12  0000              add [bx+si],al
00005B14  0000              add [bx+si],al
00005B16  0000              add [bx+si],al
00005B18  0000              add [bx+si],al
00005B1A  0000              add [bx+si],al
00005B1C  0000              add [bx+si],al
00005B1E  0000              add [bx+si],al
